Archive member included because of file (symbol)

../common/drivers/LuminaryMicro/arm-none-eabi-gcc/libdriver.a(ethernet.o)
                              ethernet/ETHIsr.o (EthernetInitExpClk)
../common/drivers/LuminaryMicro/arm-none-eabi-gcc/libdriver.a(flash.o)
                              ethernet/ETHIsr.o (FlashUserGet)
../common/drivers/LuminaryMicro/arm-none-eabi-gcc/libdriver.a(gpio.o)
                              main.o (GPIODirModeSet)
../common/drivers/LuminaryMicro/arm-none-eabi-gcc/libdriver.a(interrupt.o)
                              ../common/drivers/LuminaryMicro/arm-none-eabi-gcc/libdriver.a(ethernet.o) (IntRegister)
../common/drivers/LuminaryMicro/arm-none-eabi-gcc/libdriver.a(ssi.o)
                              ../common/fatfs/mmc-ek-lm3s8962.o (SSIConfigSetExpClk)
../common/drivers/LuminaryMicro/arm-none-eabi-gcc/libdriver.a(sysctl.o)
                              main.o (SysCtlPeripheralPresent)
../common/drivers/LuminaryMicro/arm-none-eabi-gcc/libdriver.a(timer.o)
                              timertest.o (TimerEnable)
../common/drivers/LuminaryMicro/arm-none-eabi-gcc/libdriver.a(cpu.o)
                              ../common/drivers/LuminaryMicro/arm-none-eabi-gcc/libdriver.a(interrupt.o) (CPUcpsid)
/home/anzinger/openocd/arm-2009q1/bin/../lib/gcc/arm-none-eabi/4.3.3/../../../../arm-none-eabi/lib/thumb2/libc.a(lib_a-ctime.o)
                              main.o (ctime)
/home/anzinger/openocd/arm-2009q1/bin/../lib/gcc/arm-none-eabi/4.3.3/../../../../arm-none-eabi/lib/thumb2/libc.a(lib_a-lcltime.o)
                              /home/anzinger/openocd/arm-2009q1/bin/../lib/gcc/arm-none-eabi/4.3.3/../../../../arm-none-eabi/lib/thumb2/libc.a(lib_a-ctime.o) (localtime)
/home/anzinger/openocd/arm-2009q1/bin/../lib/gcc/arm-none-eabi/4.3.3/../../../../arm-none-eabi/lib/thumb2/libc.a(lib_a-lcltime_r.o)
                              /home/anzinger/openocd/arm-2009q1/bin/../lib/gcc/arm-none-eabi/4.3.3/../../../../arm-none-eabi/lib/thumb2/libc.a(lib_a-lcltime.o) (localtime_r)
/home/anzinger/openocd/arm-2009q1/bin/../lib/gcc/arm-none-eabi/4.3.3/../../../../arm-none-eabi/lib/thumb2/libc.a(lib_a-malloc.o)
                              ../common/ethernet/LMlwip/src/core/dhcp.o (free)
/home/anzinger/openocd/arm-2009q1/bin/../lib/gcc/arm-none-eabi/4.3.3/../../../../arm-none-eabi/lib/thumb2/libc.a(lib_a-mallocr.o)
                              /home/anzinger/openocd/arm-2009q1/bin/../lib/gcc/arm-none-eabi/4.3.3/../../../../arm-none-eabi/lib/thumb2/libc.a(lib_a-malloc.o) (_malloc_r)
/home/anzinger/openocd/arm-2009q1/bin/../lib/gcc/arm-none-eabi/4.3.3/../../../../arm-none-eabi/lib/thumb2/libc.a(lib_a-memcmp.o)
                              ../common/rtos/Source/tasks.o (memcmp)
/home/anzinger/openocd/arm-2009q1/bin/../lib/gcc/arm-none-eabi/4.3.3/../../../../arm-none-eabi/lib/thumb2/libc.a(lib_a-memcpy.o)
                              ../common/drivers/LuminaryMicro/ustdlib.o (memcpy)
/home/anzinger/openocd/arm-2009q1/bin/../lib/gcc/arm-none-eabi/4.3.3/../../../../arm-none-eabi/lib/thumb2/libc.a(lib_a-memset.o)
                              ../common/rtos/Source/tasks.o (memset)
/home/anzinger/openocd/arm-2009q1/bin/../lib/gcc/arm-none-eabi/4.3.3/../../../../arm-none-eabi/lib/thumb2/libc.a(lib_a-mktm_r.o)
                              /home/anzinger/openocd/arm-2009q1/bin/../lib/gcc/arm-none-eabi/4.3.3/../../../../arm-none-eabi/lib/thumb2/libc.a(lib_a-lcltime_r.o) (_mktm_r)
/home/anzinger/openocd/arm-2009q1/bin/../lib/gcc/arm-none-eabi/4.3.3/../../../../arm-none-eabi/lib/thumb2/libc.a(lib_a-mlock.o)
                              /home/anzinger/openocd/arm-2009q1/bin/../lib/gcc/arm-none-eabi/4.3.3/../../../../arm-none-eabi/lib/thumb2/libc.a(lib_a-mallocr.o) (__malloc_lock)
/home/anzinger/openocd/arm-2009q1/bin/../lib/gcc/arm-none-eabi/4.3.3/../../../../arm-none-eabi/lib/thumb2/libc.a(lib_a-sbrkr.o)
                              /home/anzinger/openocd/arm-2009q1/bin/../lib/gcc/arm-none-eabi/4.3.3/../../../../arm-none-eabi/lib/thumb2/libc.a(lib_a-mallocr.o) (_sbrk_r)
/home/anzinger/openocd/arm-2009q1/bin/../lib/gcc/arm-none-eabi/4.3.3/../../../../arm-none-eabi/lib/thumb2/libc.a(lib_a-strcat.o)
                              ../common/rtos/Source/tasks.o (strcat)
/home/anzinger/openocd/arm-2009q1/bin/../lib/gcc/arm-none-eabi/4.3.3/../../../../arm-none-eabi/lib/thumb2/libc.a(lib_a-strchr.o)
                              ../common/fatfs/SDcard.o (strchr)
/home/anzinger/openocd/arm-2009q1/bin/../lib/gcc/arm-none-eabi/4.3.3/../../../../arm-none-eabi/lib/thumb2/libc.a(lib_a-strcmp.o)
                              ../common/ethernet/LMlwip/src/core/dns.o (strcmp)
/home/anzinger/openocd/arm-2009q1/bin/../lib/gcc/arm-none-eabi/4.3.3/../../../../arm-none-eabi/lib/thumb2/libc.a(lib_a-strcpy.o)
                              ../common/ethernet/LMlwip/src/core/dns.o (strcpy)
/home/anzinger/openocd/arm-2009q1/bin/../lib/gcc/arm-none-eabi/4.3.3/../../../../arm-none-eabi/lib/thumb2/libc.a(lib_a-strlen.o)
                              ../common/rtos/Source/tasks.o (strlen)
/home/anzinger/openocd/arm-2009q1/bin/../lib/gcc/arm-none-eabi/4.3.3/../../../../arm-none-eabi/lib/thumb2/libc.a(lib_a-strncmp.o)
                              httpd/lmi_fs.o (strncmp)
/home/anzinger/openocd/arm-2009q1/bin/../lib/gcc/arm-none-eabi/4.3.3/../../../../arm-none-eabi/lib/thumb2/libc.a(lib_a-strncpy.o)
                              ../common/drivers/LuminaryMicro/ustdlib.o (strncpy)
/home/anzinger/openocd/arm-2009q1/bin/../lib/gcc/arm-none-eabi/4.3.3/../../../../arm-none-eabi/lib/thumb2/libc.a(lib_a-strstr.o)
                              httpd/httpd.o (strstr)
/home/anzinger/openocd/arm-2009q1/bin/../lib/gcc/arm-none-eabi/4.3.3/../../../../arm-none-eabi/lib/thumb2/libc.a(lib_a-tzlock.o)
                              /home/anzinger/openocd/arm-2009q1/bin/../lib/gcc/arm-none-eabi/4.3.3/../../../../arm-none-eabi/lib/thumb2/libc.a(lib_a-mktm_r.o) (__tz_lock)
/home/anzinger/openocd/arm-2009q1/bin/../lib/gcc/arm-none-eabi/4.3.3/../../../../arm-none-eabi/lib/thumb2/libc.a(lib_a-tzvars.o)
                              /home/anzinger/openocd/arm-2009q1/bin/../lib/gcc/arm-none-eabi/4.3.3/../../../../arm-none-eabi/lib/thumb2/libc.a(lib_a-mktm_r.o) (_daylight)
/home/anzinger/openocd/arm-2009q1/bin/../lib/gcc/arm-none-eabi/4.3.3/../../../../arm-none-eabi/lib/thumb2/libc.a(lib_a-asctime.o)
                              /home/anzinger/openocd/arm-2009q1/bin/../lib/gcc/arm-none-eabi/4.3.3/../../../../arm-none-eabi/lib/thumb2/libc.a(lib_a-ctime.o) (asctime)
/home/anzinger/openocd/arm-2009q1/bin/../lib/gcc/arm-none-eabi/4.3.3/../../../../arm-none-eabi/lib/thumb2/libc.a(lib_a-asctime_r.o)
                              /home/anzinger/openocd/arm-2009q1/bin/../lib/gcc/arm-none-eabi/4.3.3/../../../../arm-none-eabi/lib/thumb2/libc.a(lib_a-asctime.o) (asctime_r)
/home/anzinger/openocd/arm-2009q1/bin/../lib/gcc/arm-none-eabi/4.3.3/../../../../arm-none-eabi/lib/thumb2/libc.a(lib_a-freer.o)
                              /home/anzinger/openocd/arm-2009q1/bin/../lib/gcc/arm-none-eabi/4.3.3/../../../../arm-none-eabi/lib/thumb2/libc.a(lib_a-malloc.o) (_free_r)
/home/anzinger/openocd/arm-2009q1/bin/../lib/gcc/arm-none-eabi/4.3.3/../../../../arm-none-eabi/lib/thumb2/libc.a(lib_a-gettzinfo.o)
                              /home/anzinger/openocd/arm-2009q1/bin/../lib/gcc/arm-none-eabi/4.3.3/../../../../arm-none-eabi/lib/thumb2/libc.a(lib_a-mktm_r.o) (__gettzinfo)
/home/anzinger/openocd/arm-2009q1/bin/../lib/gcc/arm-none-eabi/4.3.3/../../../../arm-none-eabi/lib/thumb2/libc.a(lib_a-impure.o)
                              /home/anzinger/openocd/arm-2009q1/bin/../lib/gcc/arm-none-eabi/4.3.3/../../../../arm-none-eabi/lib/thumb2/libc.a(lib_a-lcltime.o) (_impure_ptr)
/home/anzinger/openocd/arm-2009q1/bin/../lib/gcc/arm-none-eabi/4.3.3/../../../../arm-none-eabi/lib/thumb2/libc.a(lib_a-memchr.o)
                              /home/anzinger/openocd/arm-2009q1/bin/../lib/gcc/arm-none-eabi/4.3.3/../../../../arm-none-eabi/lib/thumb2/libc.a(lib_a-strstr.o) (memchr)
/home/anzinger/openocd/arm-2009q1/bin/../lib/gcc/arm-none-eabi/4.3.3/../../../../arm-none-eabi/lib/thumb2/libc.a(lib_a-reent.o)
                              /home/anzinger/openocd/arm-2009q1/bin/../lib/gcc/arm-none-eabi/4.3.3/../../../../arm-none-eabi/lib/thumb2/libc.a(lib_a-sbrkr.o) (errno)
/home/anzinger/openocd/arm-2009q1/bin/../lib/gcc/arm-none-eabi/4.3.3/../../../../arm-none-eabi/lib/thumb2/libc.a(lib_a-sprintf.o)
                              /home/anzinger/openocd/arm-2009q1/bin/../lib/gcc/arm-none-eabi/4.3.3/../../../../arm-none-eabi/lib/thumb2/libc.a(lib_a-asctime_r.o) (sprintf)
/home/anzinger/openocd/arm-2009q1/bin/../lib/gcc/arm-none-eabi/4.3.3/../../../../arm-none-eabi/lib/thumb2/libc.a(lib_a-svfprintf.o)
                              /home/anzinger/openocd/arm-2009q1/bin/../lib/gcc/arm-none-eabi/4.3.3/../../../../arm-none-eabi/lib/thumb2/libc.a(lib_a-sprintf.o) (_svfprintf_r)
/home/anzinger/openocd/arm-2009q1/bin/../lib/gcc/arm-none-eabi/4.3.3/../../../../arm-none-eabi/lib/thumb2/libc.a(lib_a-dtoa.o)
                              /home/anzinger/openocd/arm-2009q1/bin/../lib/gcc/arm-none-eabi/4.3.3/../../../../arm-none-eabi/lib/thumb2/libc.a(lib_a-svfprintf.o) (_dtoa_r)
/home/anzinger/openocd/arm-2009q1/bin/../lib/gcc/arm-none-eabi/4.3.3/../../../../arm-none-eabi/lib/thumb2/libc.a(lib_a-locale.o)
                              /home/anzinger/openocd/arm-2009q1/bin/../lib/gcc/arm-none-eabi/4.3.3/../../../../arm-none-eabi/lib/thumb2/libc.a(lib_a-svfprintf.o) (_localeconv_r)
/home/anzinger/openocd/arm-2009q1/bin/../lib/gcc/arm-none-eabi/4.3.3/../../../../arm-none-eabi/lib/thumb2/libc.a(lib_a-memmove.o)
                              /home/anzinger/openocd/arm-2009q1/bin/../lib/gcc/arm-none-eabi/4.3.3/../../../../arm-none-eabi/lib/thumb2/libc.a(lib_a-svfprintf.o) (memmove)
/home/anzinger/openocd/arm-2009q1/bin/../lib/gcc/arm-none-eabi/4.3.3/../../../../arm-none-eabi/lib/thumb2/libc.a(lib_a-mprec.o)
                              /home/anzinger/openocd/arm-2009q1/bin/../lib/gcc/arm-none-eabi/4.3.3/../../../../arm-none-eabi/lib/thumb2/libc.a(lib_a-dtoa.o) (__hi0bits)
/home/anzinger/openocd/arm-2009q1/bin/../lib/gcc/arm-none-eabi/4.3.3/../../../../arm-none-eabi/lib/thumb2/libc.a(lib_a-reallocr.o)
                              /home/anzinger/openocd/arm-2009q1/bin/../lib/gcc/arm-none-eabi/4.3.3/../../../../arm-none-eabi/lib/thumb2/libc.a(lib_a-svfprintf.o) (_realloc_r)
/home/anzinger/openocd/arm-2009q1/bin/../lib/gcc/arm-none-eabi/4.3.3/../../../../arm-none-eabi/lib/thumb2/libc.a(lib_a-s_isinfd.o)
                              /home/anzinger/openocd/arm-2009q1/bin/../lib/gcc/arm-none-eabi/4.3.3/../../../../arm-none-eabi/lib/thumb2/libc.a(lib_a-svfprintf.o) (__isinfd)
/home/anzinger/openocd/arm-2009q1/bin/../lib/gcc/arm-none-eabi/4.3.3/../../../../arm-none-eabi/lib/thumb2/libc.a(lib_a-s_isnand.o)
                              /home/anzinger/openocd/arm-2009q1/bin/../lib/gcc/arm-none-eabi/4.3.3/../../../../arm-none-eabi/lib/thumb2/libc.a(lib_a-svfprintf.o) (__isnand)
/home/anzinger/openocd/arm-2009q1/bin/../lib/gcc/arm-none-eabi/4.3.3/../../../../arm-none-eabi/lib/thumb2/libc.a(lib_a-callocr.o)
                              /home/anzinger/openocd/arm-2009q1/bin/../lib/gcc/arm-none-eabi/4.3.3/../../../../arm-none-eabi/lib/thumb2/libc.a(lib_a-mprec.o) (_calloc_r)
/home/anzinger/openocd/arm-2009q1/bin/../lib/gcc/arm-none-eabi/4.3.3/thumb2/libgcc.a(_udivsi3.o)
                              /home/anzinger/openocd/arm-2009q1/bin/../lib/gcc/arm-none-eabi/4.3.3/../../../../arm-none-eabi/lib/thumb2/libc.a(lib_a-dtoa.o) (__aeabi_uidiv)
/home/anzinger/openocd/arm-2009q1/bin/../lib/gcc/arm-none-eabi/4.3.3/thumb2/libgcc.a(_dvmd_tls.o)
                              /home/anzinger/openocd/arm-2009q1/bin/../lib/gcc/arm-none-eabi/4.3.3/thumb2/libgcc.a(_udivsi3.o) (__aeabi_idiv0)
/home/anzinger/openocd/arm-2009q1/bin/../lib/gcc/arm-none-eabi/4.3.3/thumb2/libgcc.a(_arm_addsubdf3.o)
                              /home/anzinger/openocd/arm-2009q1/bin/../lib/gcc/arm-none-eabi/4.3.3/../../../../arm-none-eabi/lib/thumb2/libc.a(lib_a-dtoa.o) (__aeabi_dsub)
/home/anzinger/openocd/arm-2009q1/bin/../lib/gcc/arm-none-eabi/4.3.3/thumb2/libgcc.a(_arm_muldivdf3.o)
                              /home/anzinger/openocd/arm-2009q1/bin/../lib/gcc/arm-none-eabi/4.3.3/../../../../arm-none-eabi/lib/thumb2/libc.a(lib_a-dtoa.o) (__aeabi_dmul)
/home/anzinger/openocd/arm-2009q1/bin/../lib/gcc/arm-none-eabi/4.3.3/thumb2/libgcc.a(_arm_cmpdf2.o)
                              /home/anzinger/openocd/arm-2009q1/bin/../lib/gcc/arm-none-eabi/4.3.3/../../../../arm-none-eabi/lib/thumb2/libc.a(lib_a-svfprintf.o) (__aeabi_dcmpeq)
/home/anzinger/openocd/arm-2009q1/bin/../lib/gcc/arm-none-eabi/4.3.3/thumb2/libgcc.a(_arm_fixdfsi.o)
                              /home/anzinger/openocd/arm-2009q1/bin/../lib/gcc/arm-none-eabi/4.3.3/../../../../arm-none-eabi/lib/thumb2/libc.a(lib_a-dtoa.o) (__aeabi_d2iz)
/home/anzinger/openocd/arm-2009q1/bin/../lib/gcc/arm-none-eabi/4.3.3/thumb2/libgcc.a(_aeabi_uldivmod.o)
                              /home/anzinger/openocd/arm-2009q1/bin/../lib/gcc/arm-none-eabi/4.3.3/../../../../arm-none-eabi/lib/thumb2/libc.a(lib_a-svfprintf.o) (__aeabi_uldivmod)
/home/anzinger/openocd/arm-2009q1/bin/../lib/gcc/arm-none-eabi/4.3.3/thumb2/libgcc.a(bpabi.o)
                              /home/anzinger/openocd/arm-2009q1/bin/../lib/gcc/arm-none-eabi/4.3.3/thumb2/libgcc.a(_aeabi_uldivmod.o) (__gnu_uldivmod_helper)
/home/anzinger/openocd/arm-2009q1/bin/../lib/gcc/arm-none-eabi/4.3.3/thumb2/libgcc.a(_divdi3.o)
                              /home/anzinger/openocd/arm-2009q1/bin/../lib/gcc/arm-none-eabi/4.3.3/thumb2/libgcc.a(bpabi.o) (__divdi3)
/home/anzinger/openocd/arm-2009q1/bin/../lib/gcc/arm-none-eabi/4.3.3/thumb2/libgcc.a(_udivdi3.o)
                              /home/anzinger/openocd/arm-2009q1/bin/../lib/gcc/arm-none-eabi/4.3.3/thumb2/libgcc.a(bpabi.o) (__udivdi3)
/home/anzinger/openocd/arm-2009q1/bin/../lib/gcc/arm-none-eabi/4.3.3/thumb2/libgcc.a(_clz.o)
                              /home/anzinger/openocd/arm-2009q1/bin/../lib/gcc/arm-none-eabi/4.3.3/thumb2/libgcc.a(_divdi3.o) (__clz_tab)

Allocating common symbols
Common symbol       size              file

t                   0x4               main.o
netif_list          0x4               ../common/ethernet/LMlwip/src/core/netif.o
tcp_active_pcbs     0x4               ../common/ethernet/LMlwip/src/core/tcp.o
udp_pcbs            0x4               ../common/ethernet/LMlwip/src/core/udp.o
errno               0x4               /home/anzinger/openocd/arm-2009q1/bin/../lib/gcc/arm-none-eabi/4.3.3/../../../../arm-none-eabi/lib/thumb2/libc.a(lib_a-reent.o)
tcp_ticks           0x4               ../common/ethernet/LMlwip/src/core/tcp.o
tcp_listen_pcbs     0x4               ../common/ethernet/LMlwip/src/core/tcp.o
xQueueRegistry      0x50              ../common/rtos/Source/queue.o
tcp_tmp_pcb         0x4               ../common/ethernet/LMlwip/src/core/tcp.o
tcp_input_pcb       0x4               ../common/ethernet/LMlwip/src/core/tcp_in.o
sntpTaskHandle      0x4               ../common/ethernet/LMlwip/src/core/sntp.o
tcp_bound_pcbs      0x4               ../common/ethernet/LMlwip/src/core/tcp.o
tcp_tw_pcbs         0x4               ../common/ethernet/LMlwip/src/core/tcp.o
netif_default       0x4               ../common/ethernet/LMlwip/src/core/netif.o

Memory Configuration

Name             Origin             Length             Attributes
FLASH            0x00000000         0x00040000         xr
SRAM             0x20000000         0x00010000         xrw
*default*        0x00000000         0xffffffff

Linker script and memory map

LOAD main.o
LOAD timertest.o
LOAD ../common/drivers/LuminaryMicro/ustdlib.o
LOAD ../common/rtos/Source/list.o
LOAD ../common/rtos/Source/queue.o
LOAD ../common/rtos/Source/tasks.o
LOAD ../common/rtos/Source/portable/GCC/ARM_CM3/port.o
LOAD ../common/rtos/Source/portable/MemMang/heap_2.o
LOAD ../common/ethernet/LMlwip/src/core/sntp.o
LOAD ../common/ethernet/LMlwip/src/core/dhcp.o
LOAD ../common/ethernet/LMlwip/src/core/dns.o
LOAD ../common/ethernet/LMlwip/contrib/port/FreeRTOS/sys_arch.o
LOAD ../common/ethernet/LMlwip/src/core/stats.o
LOAD ../common/ethernet/LMlwip/src/core/netif.o
LOAD ../common/ethernet/LMlwip/src/core/pbuf.o
LOAD ../common/ethernet/LMlwip/src/core/ipv4/ip_frag.o
LOAD ../common/ethernet/LMlwip/src/core/ipv4/autoip.o
LOAD ../common/ethernet/LMlwip/src/core/ipv4/icmp.o
LOAD ../common/ethernet/LMlwip/src/core/ipv4/igmp.o
LOAD ../common/ethernet/LMlwip/src/core/ipv4/inet.o
LOAD ../common/ethernet/LMlwip/src/core/ipv4/inet_chksum.o
LOAD ../common/ethernet/LMlwip/src/core/ipv4/ip.o
LOAD ../common/ethernet/LMlwip/src/core/ipv4/ip_addr.o
LOAD ../common/ethernet/LMlwip/src/core/udp.o
LOAD ../common/ethernet/LMlwip/src/core/tcp_out.o
LOAD ../common/ethernet/LMlwip/src/core/tcp_in.o
LOAD ../common/ethernet/LMlwip/src/core/tcp.o
LOAD ../common/ethernet/LMlwip/src/core/init.o
LOAD ../common/ethernet/LMlwip/src/core/mem.o
LOAD ../common/ethernet/LMlwip/src/core/raw.o
LOAD ../common/ethernet/LMlwip/src/core/memp.o
LOAD ../common/ethernet/LMlwip/src/core/sys.o
LOAD ../common/ethernet/LMlwip/src/api/tcpip.o
LOAD ../common/ethernet/LMlwip/src/api/api_msg.o
LOAD ../common/ethernet/LMlwip/src/api/sockets.o
LOAD ../common/ethernet/LMlwip/src/api/netbuf.o
LOAD ../common/ethernet/LMlwip/src/api/api_lib.o
LOAD ../common/ethernet/LMlwip/src/netif/etharp.o
LOAD ../common/fatfs/ff.o
LOAD ../common/fatfs/mmc-ek-lm3s8962.o
LOAD ../common/fatfs/SDcard.o
LOAD ethernet/ETHIsr.o
LOAD ethernet/LWIPStack.o
LOAD httpd/lmi_fs.o
LOAD httpd/httpd.o
LOAD httpd/cgifuncs.o
LOAD httpd/netbios.o
LOAD startup.o
LOAD ../common/drivers/LuminaryMicro/arm-none-eabi-gcc/libdriver.a
LOAD ../common/drivers/LuminaryMicro/arm-none-eabi-gcc/libgr.a
START GROUP
LOAD /home/anzinger/openocd/arm-2009q1/bin/../lib/gcc/arm-none-eabi/4.3.3/thumb2/libgcc.a
LOAD /home/anzinger/openocd/arm-2009q1/bin/../lib/gcc/arm-none-eabi/4.3.3/../../../../arm-none-eabi/lib/thumb2/libc.a
END GROUP

.text           0x00000000    0x2a000
 *(.isr_vector)
 .isr_vector    0x00000000       0xf0 startup.o
                0x00000000                g_pfnVectors
 *(.text*)
 .text          0x000000f0        0x0 main.o
 .text.main     0x000000f0       0x6c main.o
                0x000000f0                main
 .text.prvSetupHardware
                0x0000015c       0x7c main.o
 .text.vApplicationTickHook
                0x000001d8        0xc main.o
                0x000001d8                vApplicationTickHook
 .text.vRealTimeClockTask
                0x000001e4       0x48 main.o
                0x000001e4                vRealTimeClockTask
 .text.vSetRealTimeClock
                0x0000022c       0x20 main.o
                0x0000022c                vSetRealTimeClock
 .text.get_dateandtime
                0x0000024c       0x2c main.o
                0x0000024c                get_dateandtime
 .text.vApplicationStackOverflowHook
                0x00000278       0x1c main.o
                0x00000278                vApplicationStackOverflowHook
 .text.LWIPDebug
                0x00000294       0x18 main.o
                0x00000294                LWIPDebug
 .text.__error__
                0x000002ac       0x24 main.o
                0x000002ac                __error__
 .text.NmiSRDebug
                0x000002d0       0x14 main.o
                0x000002d0                NmiSRDebug
 .text.IntDefaultHandlerDebug
                0x000002e4       0x14 main.o
                0x000002e4                IntDefaultHandlerDebug
 .text.hard_fault_handler_c
                0x000002f8      0x14c main.o
                0x000002f8                hard_fault_handler_c
 .text._sbrk    0x00000444       0x18 main.o
                0x00000444                _sbrk
 .text          0x0000045c        0x0 timertest.o
 .text.vSetupHighFrequencyTimer
                0x0000045c       0xc0 timertest.o
                0x0000045c                vSetupHighFrequencyTimer
 .text.Timer0IntHandler
                0x0000051c       0xa8 timertest.o
                0x0000051c                Timer0IntHandler
 .text          0x000005c4        0x0 ../common/drivers/LuminaryMicro/ustdlib.o
 .text.uvsnprintf
                0x000005c4      0x508 ../common/drivers/LuminaryMicro/ustdlib.o
                0x000005c4                uvsnprintf
 .text.usprintf
                0x00000acc       0x34 ../common/drivers/LuminaryMicro/ustdlib.o
                0x00000acc                usprintf
 .text.usnprintf
                0x00000b00       0x34 ../common/drivers/LuminaryMicro/ustdlib.o
                0x00000b00                usnprintf
 .text          0x00000b34        0x0 ../common/rtos/Source/list.o
 .text.vListInitialise
                0x00000b34       0x48 ../common/rtos/Source/list.o
                0x00000b34                vListInitialise
 .text.vListInitialiseItem
                0x00000b7c       0x1c ../common/rtos/Source/list.o
                0x00000b7c                vListInitialiseItem
 .text.vListInsertEnd
                0x00000b98       0x50 ../common/rtos/Source/list.o
                0x00000b98                vListInsertEnd
 .text.vListInsert
                0x00000be8       0x74 ../common/rtos/Source/list.o
                0x00000be8                vListInsert
 .text.vListRemove
                0x00000c5c       0x54 ../common/rtos/Source/list.o
                0x00000c5c                vListRemove
 .text          0x00000cb0        0x0 ../common/rtos/Source/queue.o
 .text.xQueueCreate
                0x00000cb0       0xd4 ../common/rtos/Source/queue.o
                0x00000cb0                xQueueCreate
 .text.xQueueCreateMutex
                0x00000d84       0x98 ../common/rtos/Source/queue.o
                0x00000d84                xQueueCreateMutex
 .text.xQueueGiveMutexRecursive
                0x00000e1c       0x58 ../common/rtos/Source/queue.o
                0x00000e1c                xQueueGiveMutexRecursive
 .text.xQueueTakeMutexRecursive
                0x00000e74       0x60 ../common/rtos/Source/queue.o
                0x00000e74                xQueueTakeMutexRecursive
 .text.xQueueCreateCountingSemaphore
                0x00000ed4       0x30 ../common/rtos/Source/queue.o
                0x00000ed4                xQueueCreateCountingSemaphore
 .text.xQueueGenericSend
                0x00000f04      0x124 ../common/rtos/Source/queue.o
                0x00000f04                xQueueGenericSend
 .text.xQueueGenericSendFromISR
                0x00001028       0x90 ../common/rtos/Source/queue.o
                0x00001028                xQueueGenericSendFromISR
 .text.xQueueGenericReceive
                0x000010b8      0x18c ../common/rtos/Source/queue.o
                0x000010b8                xQueueGenericReceive
 .text.xQueueReceiveFromISR
                0x00001244       0x94 ../common/rtos/Source/queue.o
                0x00001244                xQueueReceiveFromISR
 .text.uxQueueMessagesWaiting
                0x000012d8       0x24 ../common/rtos/Source/queue.o
                0x000012d8                uxQueueMessagesWaiting
 .text.uxQueueMessagesWaitingFromISR
                0x000012fc       0x1c ../common/rtos/Source/queue.o
                0x000012fc                uxQueueMessagesWaitingFromISR
 .text.vQueueDelete
                0x00001318       0x28 ../common/rtos/Source/queue.o
                0x00001318                vQueueDelete
 .text.prvCopyDataToQueue
                0x00001340       0xc4 ../common/rtos/Source/queue.o
 .text.prvCopyDataFromQueue
                0x00001404       0x50 ../common/rtos/Source/queue.o
 .text.prvUnlockQueue
                0x00001454       0x98 ../common/rtos/Source/queue.o
 .text.prvIsQueueEmpty
                0x000014ec       0x2c ../common/rtos/Source/queue.o
 .text.xQueueIsQueueEmptyFromISR
                0x00001518       0x24 ../common/rtos/Source/queue.o
                0x00001518                xQueueIsQueueEmptyFromISR
 .text.prvIsQueueFull
                0x0000153c       0x30 ../common/rtos/Source/queue.o
 .text.xQueueIsQueueFullFromISR
                0x0000156c       0x28 ../common/rtos/Source/queue.o
                0x0000156c                xQueueIsQueueFullFromISR
 .text.vQueueAddToRegistry
                0x00001594       0x64 ../common/rtos/Source/queue.o
                0x00001594                vQueueAddToRegistry
 .text.vQueueUnregisterQueue
                0x000015f8       0x54 ../common/rtos/Source/queue.o
 .text          0x0000164c        0x0 ../common/rtos/Source/tasks.o
 .text.xTaskGenericCreate
                0x0000164c      0x1b8 ../common/rtos/Source/tasks.o
                0x0000164c                xTaskGenericCreate
 .text.vTaskDelete
                0x00001804       0xc8 ../common/rtos/Source/tasks.o
                0x00001804                vTaskDelete
 .text.vTaskDelayUntil
                0x000018cc      0x10c ../common/rtos/Source/tasks.o
                0x000018cc                vTaskDelayUntil
 .text.vTaskDelay
                0x000019d8       0xb8 ../common/rtos/Source/tasks.o
                0x000019d8                vTaskDelay
 .text.uxTaskPriorityGet
                0x00001a90       0x40 ../common/rtos/Source/tasks.o
                0x00001a90                uxTaskPriorityGet
 .text.vTaskPrioritySet
                0x00001ad0      0x134 ../common/rtos/Source/tasks.o
                0x00001ad0                vTaskPrioritySet
 .text.vTaskSuspend
                0x00001c04       0x88 ../common/rtos/Source/tasks.o
                0x00001c04                vTaskSuspend
 .text.xTaskIsTaskSuspended
                0x00001c8c       0x50 ../common/rtos/Source/tasks.o
                0x00001c8c                xTaskIsTaskSuspended
 .text.vTaskResume
                0x00001cdc       0xac ../common/rtos/Source/tasks.o
                0x00001cdc                vTaskResume
 .text.xTaskResumeFromISR
                0x00001d88       0xc0 ../common/rtos/Source/tasks.o
                0x00001d88                xTaskResumeFromISR
 .text.vTaskStartScheduler
                0x00001e48       0x84 ../common/rtos/Source/tasks.o
                0x00001e48                vTaskStartScheduler
 .text.vTaskEndScheduler
                0x00001ecc       0x24 ../common/rtos/Source/tasks.o
                0x00001ecc                vTaskEndScheduler
 .text.vTaskSuspendAll
                0x00001ef0       0x24 ../common/rtos/Source/tasks.o
                0x00001ef0                vTaskSuspendAll
 .text.xTaskResumeAll
                0x00001f14      0x178 ../common/rtos/Source/tasks.o
                0x00001f14                xTaskResumeAll
 .text.xTaskGetTickCount
                0x0000208c       0x28 ../common/rtos/Source/tasks.o
                0x0000208c                xTaskGetTickCount
 .text.uxTaskGetNumberOfTasks
                0x000020b4       0x18 ../common/rtos/Source/tasks.o
                0x000020b4                uxTaskGetNumberOfTasks
 .text.vTaskList
                0x000020cc      0x130 ../common/rtos/Source/tasks.o
                0x000020cc                vTaskList
 .text.vTaskGetRunTimeStats
                0x000021fc      0x130 ../common/rtos/Source/tasks.o
                0x000021fc                vTaskGetRunTimeStats
 .text.vTaskStartTrace
                0x0000232c       0x54 ../common/rtos/Source/tasks.o
                0x0000232c                vTaskStartTrace
 .text.ulTaskEndTrace
                0x00002380       0x44 ../common/rtos/Source/tasks.o
                0x00002380                ulTaskEndTrace
 .text.vTaskIncrementTick
                0x000023c4      0x168 ../common/rtos/Source/tasks.o
                0x000023c4                vTaskIncrementTick
 .text.vTaskSwitchContext
                0x0000252c      0x24c ../common/rtos/Source/tasks.o
                0x0000252c                vTaskSwitchContext
 .text.vTaskPlaceOnEventList
                0x00002778       0xd4 ../common/rtos/Source/tasks.o
                0x00002778                vTaskPlaceOnEventList
 .text.xTaskRemoveFromEventList
                0x0000284c       0xd8 ../common/rtos/Source/tasks.o
                0x0000284c                xTaskRemoveFromEventList
 .text.vTaskSetTimeOutState
                0x00002924       0x30 ../common/rtos/Source/tasks.o
                0x00002924                vTaskSetTimeOutState
 .text.xTaskCheckForTimeOut
                0x00002954       0xa8 ../common/rtos/Source/tasks.o
                0x00002954                xTaskCheckForTimeOut
 .text.vTaskMissedYield
                0x000029fc       0x18 ../common/rtos/Source/tasks.o
                0x000029fc                vTaskMissedYield
 .text.prvIdleTask
                0x00002a14       0x10 ../common/rtos/Source/tasks.o
 .text.prvInitialiseTCBVariables
                0x00002a24       0x84 ../common/rtos/Source/tasks.o
 .text.prvInitialiseTaskLists
                0x00002aa8       0xa4 ../common/rtos/Source/tasks.o
 .text.prvCheckTasksWaitingTermination
                0x00002b4c       0xb0 ../common/rtos/Source/tasks.o
 .text.prvAllocateTCBAndStack
                0x00002bfc       0x6c ../common/rtos/Source/tasks.o
 .text.prvListTaskWithinSingleList
                0x00002c68       0xcc ../common/rtos/Source/tasks.o
 .text.prvGenerateRunTimeStatsForTasksInList
                0x00002d34      0x114 ../common/rtos/Source/tasks.o
 .text.usTaskCheckFreeStackSpace
                0x00002e48       0x44 ../common/rtos/Source/tasks.o
 .text.uxTaskGetStackHighWaterMark
                0x00002e8c       0x40 ../common/rtos/Source/tasks.o
                0x00002e8c                uxTaskGetStackHighWaterMark
 .text.prvDeleteTCB
                0x00002ecc       0x20 ../common/rtos/Source/tasks.o
 .text.xTaskGetCurrentTaskHandle
                0x00002eec       0x20 ../common/rtos/Source/tasks.o
                0x00002eec                xTaskGetCurrentTaskHandle
 .text.vTaskPriorityInherit
                0x00002f0c       0xd8 ../common/rtos/Source/tasks.o
                0x00002f0c                vTaskPriorityInherit
 .text.vTaskPriorityDisinherit
                0x00002fe4       0x90 ../common/rtos/Source/tasks.o
                0x00002fe4                vTaskPriorityDisinherit
 .text          0x00003074        0x0 ../common/rtos/Source/portable/GCC/ARM_CM3/port.o
 .text.pxPortInitialiseStack
                0x00003074       0x58 ../common/rtos/Source/portable/GCC/ARM_CM3/port.o
                0x00003074                pxPortInitialiseStack
 .text.vPortSVCHandler
                0x000030cc       0x20 ../common/rtos/Source/portable/GCC/ARM_CM3/port.o
                0x000030cc                vPortSVCHandler
 .text.vPortStartFirstTask
                0x000030ec       0x10 ../common/rtos/Source/portable/GCC/ARM_CM3/port.o
                0x000030ec                vPortStartFirstTask
 .text.xPortStartScheduler
                0x000030fc       0x54 ../common/rtos/Source/portable/GCC/ARM_CM3/port.o
                0x000030fc                xPortStartScheduler
 .text.vPortEndScheduler
                0x00003150        0xc ../common/rtos/Source/portable/GCC/ARM_CM3/port.o
                0x00003150                vPortEndScheduler
 .text.vPortYieldFromISR
                0x0000315c       0x18 ../common/rtos/Source/portable/GCC/ARM_CM3/port.o
                0x0000315c                vPortYieldFromISR
 .text.vPortEnterCritical
                0x00003174       0x2c ../common/rtos/Source/portable/GCC/ARM_CM3/port.o
                0x00003174                vPortEnterCritical
 .text.vPortExitCritical
                0x000031a0       0x38 ../common/rtos/Source/portable/GCC/ARM_CM3/port.o
                0x000031a0                vPortExitCritical
 .text.xPortPendSVHandler
                0x000031d8       0x3c ../common/rtos/Source/portable/GCC/ARM_CM3/port.o
                0x000031d8                xPortPendSVHandler
 .text.xPortSysTickHandler
                0x00003214       0x38 ../common/rtos/Source/portable/GCC/ARM_CM3/port.o
                0x00003214                xPortSysTickHandler
 .text.prvSetupTimerInterrupt
                0x0000324c       0x28 ../common/rtos/Source/portable/GCC/ARM_CM3/port.o
 .text          0x00003274        0x0 ../common/rtos/Source/portable/MemMang/heap_2.o
 .text.pvPortMalloc
                0x00003274      0x1c4 ../common/rtos/Source/portable/MemMang/heap_2.o
                0x00003274                pvPortMalloc
 .text.vPortFree
                0x00003438       0x88 ../common/rtos/Source/portable/MemMang/heap_2.o
                0x00003438                vPortFree
 .text.xPortGetFreeHeapSize
                0x000034c0       0x18 ../common/rtos/Source/portable/MemMang/heap_2.o
                0x000034c0                xPortGetFreeHeapSize
 .text.vPortInitialiseBlocks
                0x000034d8        0xc ../common/rtos/Source/portable/MemMang/heap_2.o
                0x000034d8                vPortInitialiseBlocks
 .text          0x000034e4        0x0 ../common/ethernet/LMlwip/src/core/sntp.o
 .text.sntp_process
                0x000034e4       0x18 ../common/ethernet/LMlwip/src/core/sntp.o
 .text.sntp_request
                0x000034fc      0x1d0 ../common/ethernet/LMlwip/src/core/sntp.o
 .text.sntp_server_found
                0x000036cc       0xa0 ../common/ethernet/LMlwip/src/core/sntp.o
 .text.sntp_thread
                0x0000376c       0x44 ../common/ethernet/LMlwip/src/core/sntp.o
 .text.sntp_init
                0x000037b0       0x38 ../common/ethernet/LMlwip/src/core/sntp.o
                0x000037b0                sntp_init
 .text          0x000037e8        0x0 ../common/ethernet/LMlwip/src/core/dhcp.o
 .text.dhcp_handle_nak
                0x000037e8       0x5c ../common/ethernet/LMlwip/src/core/dhcp.o
 .text.dhcp_check
                0x00003844       0x74 ../common/ethernet/LMlwip/src/core/dhcp.o
 .text.dhcp_handle_offer
                0x000038b8       0x8c ../common/ethernet/LMlwip/src/core/dhcp.o
 .text.dhcp_select
                0x00003944      0x1a0 ../common/ethernet/LMlwip/src/core/dhcp.o
 .text.dhcp_coarse_tmr
                0x00003ae4       0x78 ../common/ethernet/LMlwip/src/core/dhcp.o
                0x00003ae4                dhcp_coarse_tmr
 .text.dhcp_fine_tmr
                0x00003b5c       0x68 ../common/ethernet/LMlwip/src/core/dhcp.o
                0x00003b5c                dhcp_fine_tmr
 .text.dhcp_timeout
                0x00003bc4       0xa8 ../common/ethernet/LMlwip/src/core/dhcp.o
 .text.dhcp_t1_timeout
                0x00003c6c       0x34 ../common/ethernet/LMlwip/src/core/dhcp.o
 .text.dhcp_t2_timeout
                0x00003ca0       0x34 ../common/ethernet/LMlwip/src/core/dhcp.o
 .text.dhcp_handle_ack
                0x00003cd4      0x240 ../common/ethernet/LMlwip/src/core/dhcp.o
 .text.dhcp_start
                0x00003f14      0x11c ../common/ethernet/LMlwip/src/core/dhcp.o
                0x00003f14                dhcp_start
 .text.dhcp_inform
                0x00004030      0x158 ../common/ethernet/LMlwip/src/core/dhcp.o
                0x00004030                dhcp_inform
 .text.dhcp_arp_reply
                0x00004188       0x60 ../common/ethernet/LMlwip/src/core/dhcp.o
                0x00004188                dhcp_arp_reply
 .text.dhcp_decline
                0x000041e8      0x128 ../common/ethernet/LMlwip/src/core/dhcp.o
 .text.dhcp_discover
                0x00004310      0x190 ../common/ethernet/LMlwip/src/core/dhcp.o
 .text.dhcp_bind
                0x000044a0      0x1a8 ../common/ethernet/LMlwip/src/core/dhcp.o
 .text.dhcp_renew
                0x00004648      0x120 ../common/ethernet/LMlwip/src/core/dhcp.o
                0x00004648                dhcp_renew
 .text.dhcp_rebind
                0x00004768      0x124 ../common/ethernet/LMlwip/src/core/dhcp.o
 .text.dhcp_release
                0x0000488c      0x184 ../common/ethernet/LMlwip/src/core/dhcp.o
                0x0000488c                dhcp_release
 .text.dhcp_stop
                0x00004a10       0x6c ../common/ethernet/LMlwip/src/core/dhcp.o
                0x00004a10                dhcp_stop
 .text.dhcp_set_state
                0x00004a7c       0x30 ../common/ethernet/LMlwip/src/core/dhcp.o
 .text.dhcp_option
                0x00004aac       0x54 ../common/ethernet/LMlwip/src/core/dhcp.o
 .text.dhcp_option_byte
                0x00004b00       0x34 ../common/ethernet/LMlwip/src/core/dhcp.o
 .text.dhcp_option_short
                0x00004b34       0x58 ../common/ethernet/LMlwip/src/core/dhcp.o
 .text.dhcp_option_long
                0x00004b8c       0xa0 ../common/ethernet/LMlwip/src/core/dhcp.o
 .text.dhcp_unfold_reply
                0x00004c2c       0xf0 ../common/ethernet/LMlwip/src/core/dhcp.o
 .text.dhcp_free_reply
                0x00004d1c       0x4c ../common/ethernet/LMlwip/src/core/dhcp.o
 .text.dhcp_recv
                0x00004d68      0x190 ../common/ethernet/LMlwip/src/core/dhcp.o
 .text.dhcp_create_request
                0x00004ef8      0x310 ../common/ethernet/LMlwip/src/core/dhcp.o
 .text.dhcp_delete_request
                0x00005208       0x44 ../common/ethernet/LMlwip/src/core/dhcp.o
 .text.dhcp_option_trailer
                0x0000524c       0x6c ../common/ethernet/LMlwip/src/core/dhcp.o
 .text.dhcp_get_option_ptr
                0x000052b8      0x154 ../common/ethernet/LMlwip/src/core/dhcp.o
 .text.dhcp_get_option_byte
                0x0000540c       0x18 ../common/ethernet/LMlwip/src/core/dhcp.o
 .text.dhcp_get_option_long
                0x00005424       0x70 ../common/ethernet/LMlwip/src/core/dhcp.o
 .text          0x00005494        0x0 ../common/ethernet/LMlwip/src/core/dns.o
 .text.dns_init
                0x00005494       0x94 ../common/ethernet/LMlwip/src/core/dns.o
                0x00005494                dns_init
 .text.dns_setserver
                0x00005528       0x78 ../common/ethernet/LMlwip/src/core/dns.o
                0x00005528                dns_setserver
 .text.dns_getserver
                0x000055a0       0x74 ../common/ethernet/LMlwip/src/core/dns.o
                0x000055a0                dns_getserver
 .text.dns_tmr  0x00005614       0x1c ../common/ethernet/LMlwip/src/core/dns.o
                0x00005614                dns_tmr
 .text.dns_lookup
                0x00005630       0x9c ../common/ethernet/LMlwip/src/core/dns.o
 .text.dns_compare_name
                0x000056cc       0x7c ../common/ethernet/LMlwip/src/core/dns.o
 .text.dns_parse_name
                0x00005748       0x54 ../common/ethernet/LMlwip/src/core/dns.o
 .text.dns_send
                0x0000579c      0x238 ../common/ethernet/LMlwip/src/core/dns.o
 .text.dns_check_entry
                0x000059d4      0x19c ../common/ethernet/LMlwip/src/core/dns.o
 .text.dns_check_entries
                0x00005b70       0x2c ../common/ethernet/LMlwip/src/core/dns.o
 .text.dns_recv
                0x00005b9c      0x29c ../common/ethernet/LMlwip/src/core/dns.o
 .text.dns_enqueue
                0x00005e38      0x134 ../common/ethernet/LMlwip/src/core/dns.o
 .text.dns_gethostbyname
                0x00005f6c      0x16c ../common/ethernet/LMlwip/src/core/dns.o
                0x00005f6c                dns_gethostbyname
 .text          0x000060d8        0x0 ../common/ethernet/LMlwip/contrib/port/FreeRTOS/sys_arch.o
 .text.sys_mbox_new
                0x000060d8       0x24 ../common/ethernet/LMlwip/contrib/port/FreeRTOS/sys_arch.o
                0x000060d8                sys_mbox_new
 .text.sys_mbox_free
                0x000060fc       0x1c ../common/ethernet/LMlwip/contrib/port/FreeRTOS/sys_arch.o
                0x000060fc                sys_mbox_free
 .text.sys_mbox_post
                0x00006118       0x2c ../common/ethernet/LMlwip/contrib/port/FreeRTOS/sys_arch.o
                0x00006118                sys_mbox_post
 .text.sys_mbox_trypost
                0x00006144       0x40 ../common/ethernet/LMlwip/contrib/port/FreeRTOS/sys_arch.o
                0x00006144                sys_mbox_trypost
 .text.sys_arch_mbox_fetch
                0x00006184       0x9c ../common/ethernet/LMlwip/contrib/port/FreeRTOS/sys_arch.o
                0x00006184                sys_arch_mbox_fetch
 .text.sys_arch_mbox_tryfetch
                0x00006220       0x48 ../common/ethernet/LMlwip/contrib/port/FreeRTOS/sys_arch.o
                0x00006220                sys_arch_mbox_tryfetch
 .text.sys_sem_new
                0x00006268       0x68 ../common/ethernet/LMlwip/contrib/port/FreeRTOS/sys_arch.o
                0x00006268                sys_sem_new
 .text.sys_arch_sem_wait
                0x000062d0       0x88 ../common/ethernet/LMlwip/contrib/port/FreeRTOS/sys_arch.o
                0x000062d0                sys_arch_sem_wait
 .text.sys_sem_signal
                0x00006358       0x24 ../common/ethernet/LMlwip/contrib/port/FreeRTOS/sys_arch.o
                0x00006358                sys_sem_signal
 .text.sys_sem_free
                0x0000637c       0x18 ../common/ethernet/LMlwip/contrib/port/FreeRTOS/sys_arch.o
                0x0000637c                sys_sem_free
 .text.sys_init
                0x00006394       0x5c ../common/ethernet/LMlwip/contrib/port/FreeRTOS/sys_arch.o
                0x00006394                sys_init
 .text.sys_arch_timeouts
                0x000063f0       0x64 ../common/ethernet/LMlwip/contrib/port/FreeRTOS/sys_arch.o
                0x000063f0                sys_arch_timeouts
 .text.sys_thread_new
                0x00006454       0x9c ../common/ethernet/LMlwip/contrib/port/FreeRTOS/sys_arch.o
                0x00006454                sys_thread_new
 .text.sys_arch_protect
                0x000064f0       0x14 ../common/ethernet/LMlwip/contrib/port/FreeRTOS/sys_arch.o
                0x000064f0                sys_arch_protect
 .text.sys_arch_unprotect
                0x00006504       0x18 ../common/ethernet/LMlwip/contrib/port/FreeRTOS/sys_arch.o
                0x00006504                sys_arch_unprotect
 .text.sys_assert
                0x0000651c       0x10 ../common/ethernet/LMlwip/contrib/port/FreeRTOS/sys_arch.o
                0x0000651c                sys_assert
 .text          0x0000652c        0x0 ../common/ethernet/LMlwip/src/core/stats.o
 .text          0x0000652c        0x0 ../common/ethernet/LMlwip/src/core/netif.o
 .text.netif_add
                0x0000652c       0xb4 ../common/ethernet/LMlwip/src/core/netif.o
                0x0000652c                netif_add
 .text.netif_set_addr
                0x000065e0       0x30 ../common/ethernet/LMlwip/src/core/netif.o
                0x000065e0                netif_set_addr
 .text.netif_remove
                0x00006610       0x84 ../common/ethernet/LMlwip/src/core/netif.o
                0x00006610                netif_remove
 .text.netif_find
                0x00006694       0x84 ../common/ethernet/LMlwip/src/core/netif.o
                0x00006694                netif_find
 .text.netif_set_ipaddr
                0x00006718      0x11c ../common/ethernet/LMlwip/src/core/netif.o
                0x00006718                netif_set_ipaddr
 .text.netif_set_gw
                0x00006834       0x4c ../common/ethernet/LMlwip/src/core/netif.o
                0x00006834                netif_set_gw
 .text.netif_set_netmask
                0x00006880       0x4c ../common/ethernet/LMlwip/src/core/netif.o
                0x00006880                netif_set_netmask
 .text.netif_set_default
                0x000068cc       0x20 ../common/ethernet/LMlwip/src/core/netif.o
                0x000068cc                netif_set_default
 .text.netif_set_up
                0x000068ec       0x50 ../common/ethernet/LMlwip/src/core/netif.o
                0x000068ec                netif_set_up
 .text.netif_set_down
                0x0000693c       0x34 ../common/ethernet/LMlwip/src/core/netif.o
                0x0000693c                netif_set_down
 .text.netif_is_up
                0x00006970       0x20 ../common/ethernet/LMlwip/src/core/netif.o
                0x00006970                netif_is_up
 .text          0x00006990        0x0 ../common/ethernet/LMlwip/src/core/pbuf.o
 .text.pbuf_alloc
                0x00006990      0x268 ../common/ethernet/LMlwip/src/core/pbuf.o
                0x00006990                pbuf_alloc
 .text.pbuf_realloc
                0x00006bf8       0xb0 ../common/ethernet/LMlwip/src/core/pbuf.o
                0x00006bf8                pbuf_realloc
 .text.pbuf_header
                0x00006ca8      0x104 ../common/ethernet/LMlwip/src/core/pbuf.o
                0x00006ca8                pbuf_header
 .text.pbuf_free
                0x00006dac       0xc4 ../common/ethernet/LMlwip/src/core/pbuf.o
                0x00006dac                pbuf_free
 .text.pbuf_clen
                0x00006e70       0x34 ../common/ethernet/LMlwip/src/core/pbuf.o
                0x00006e70                pbuf_clen
 .text.pbuf_ref
                0x00006ea4       0x34 ../common/ethernet/LMlwip/src/core/pbuf.o
                0x00006ea4                pbuf_ref
 .text.pbuf_cat
                0x00006ed8       0x5c ../common/ethernet/LMlwip/src/core/pbuf.o
                0x00006ed8                pbuf_cat
 .text.pbuf_chain
                0x00006f34       0x20 ../common/ethernet/LMlwip/src/core/pbuf.o
                0x00006f34                pbuf_chain
 .text.pbuf_dechain
                0x00006f54       0x64 ../common/ethernet/LMlwip/src/core/pbuf.o
                0x00006f54                pbuf_dechain
 .text.pbuf_copy
                0x00006fb8      0x124 ../common/ethernet/LMlwip/src/core/pbuf.o
                0x00006fb8                pbuf_copy
 .text.pbuf_copy_partial
                0x000070dc       0xe8 ../common/ethernet/LMlwip/src/core/pbuf.o
                0x000070dc                pbuf_copy_partial
 .text          0x000071c4        0x0 ../common/ethernet/LMlwip/src/core/ipv4/ip_frag.o
 .text          0x000071c4        0x0 ../common/ethernet/LMlwip/src/core/ipv4/autoip.o
 .text          0x000071c4        0x0 ../common/ethernet/LMlwip/src/core/ipv4/icmp.o
 .text.icmp_input
                0x000071c4      0x4d4 ../common/ethernet/LMlwip/src/core/ipv4/icmp.o
                0x000071c4                icmp_input
 .text.icmp_dest_unreach
                0x00007698      0x17c ../common/ethernet/LMlwip/src/core/ipv4/icmp.o
                0x00007698                icmp_dest_unreach
 .text          0x00007814        0x0 ../common/ethernet/LMlwip/src/core/ipv4/igmp.o
 .text          0x00007814        0x0 ../common/ethernet/LMlwip/src/core/ipv4/inet.o
 .text.inet_addr
                0x00007814       0x34 ../common/ethernet/LMlwip/src/core/ipv4/inet.o
                0x00007814                inet_addr
 .text.inet_aton
                0x00007848      0x28c ../common/ethernet/LMlwip/src/core/ipv4/inet.o
                0x00007848                inet_aton
 .text.inet_ntoa
                0x00007ad4      0x10c ../common/ethernet/LMlwip/src/core/ipv4/inet.o
                0x00007ad4                inet_ntoa
 .text.htons    0x00007be0       0x30 ../common/ethernet/LMlwip/src/core/ipv4/inet.o
                0x00007be0                htons
 .text.ntohs    0x00007c10       0x20 ../common/ethernet/LMlwip/src/core/ipv4/inet.o
                0x00007c10                ntohs
 .text.htonl    0x00007c30       0x40 ../common/ethernet/LMlwip/src/core/ipv4/inet.o
                0x00007c30                htonl
 .text.ntohl    0x00007c70       0x1c ../common/ethernet/LMlwip/src/core/ipv4/inet.o
                0x00007c70                ntohl
 .text          0x00007c8c        0x0 ../common/ethernet/LMlwip/src/core/ipv4/inet_chksum.o
 .text.lwip_standard_chksum
                0x00007c8c       0xbc ../common/ethernet/LMlwip/src/core/ipv4/inet_chksum.o
 .text.inet_chksum_pseudo
                0x00007d48      0x1d0 ../common/ethernet/LMlwip/src/core/ipv4/inet_chksum.o
                0x00007d48                inet_chksum_pseudo
 .text.inet_chksum_pseudo_partial
                0x00007f18      0x1f0 ../common/ethernet/LMlwip/src/core/ipv4/inet_chksum.o
                0x00007f18                inet_chksum_pseudo_partial
 .text.inet_chksum
                0x00008108       0x50 ../common/ethernet/LMlwip/src/core/ipv4/inet_chksum.o
                0x00008108                inet_chksum
 .text.inet_chksum_pbuf
                0x00008158       0xbc ../common/ethernet/LMlwip/src/core/ipv4/inet_chksum.o
                0x00008158                inet_chksum_pbuf
 .text          0x00008214        0x0 ../common/ethernet/LMlwip/src/core/ipv4/ip.o
 .text.ip_route
                0x00008214       0xb0 ../common/ethernet/LMlwip/src/core/ipv4/ip.o
                0x00008214                ip_route
 .text.ip_input
                0x000082c4      0x34c ../common/ethernet/LMlwip/src/core/ipv4/ip.o
                0x000082c4                ip_input
 .text.ip_output_if
                0x00008610      0x400 ../common/ethernet/LMlwip/src/core/ipv4/ip.o
                0x00008610                ip_output_if
 .text.ip_output
                0x00008a10       0x5c ../common/ethernet/LMlwip/src/core/ipv4/ip.o
                0x00008a10                ip_output
 .text          0x00008a6c        0x0 ../common/ethernet/LMlwip/src/core/ipv4/ip_addr.o
 .text.ip_addr_isbroadcast
                0x00008a6c       0xdc ../common/ethernet/LMlwip/src/core/ipv4/ip_addr.o
                0x00008a6c                ip_addr_isbroadcast
 .text          0x00008b48        0x0 ../common/ethernet/LMlwip/src/core/udp.o
 .text.udp_input
                0x00008b48      0x3e0 ../common/ethernet/LMlwip/src/core/udp.o
                0x00008b48                udp_input
 .text.udp_send
                0x00008f28       0x30 ../common/ethernet/LMlwip/src/core/udp.o
                0x00008f28                udp_send
 .text.udp_sendto
                0x00008f58       0x50 ../common/ethernet/LMlwip/src/core/udp.o
                0x00008f58                udp_sendto
 .text.udp_sendto_if
                0x00008fa8      0x234 ../common/ethernet/LMlwip/src/core/udp.o
                0x00008fa8                udp_sendto_if
 .text.udp_bind
                0x000091dc      0x110 ../common/ethernet/LMlwip/src/core/udp.o
                0x000091dc                udp_bind
 .text.udp_connect
                0x000092ec       0xe0 ../common/ethernet/LMlwip/src/core/udp.o
                0x000092ec                udp_connect
 .text.udp_disconnect
                0x000093cc       0x54 ../common/ethernet/LMlwip/src/core/udp.o
                0x000093cc                udp_disconnect
 .text.udp_recv
                0x00009420       0x24 ../common/ethernet/LMlwip/src/core/udp.o
                0x00009420                udp_recv
 .text.udp_remove
                0x00009444       0x78 ../common/ethernet/LMlwip/src/core/udp.o
                0x00009444                udp_remove
 .text.udp_new  0x000094bc       0x48 ../common/ethernet/LMlwip/src/core/udp.o
                0x000094bc                udp_new
 .text          0x00009504        0x0 ../common/ethernet/LMlwip/src/core/tcp_out.o
 .text.tcp_send_ctrl
                0x00009504       0x44 ../common/ethernet/LMlwip/src/core/tcp_out.o
                0x00009504                tcp_send_ctrl
 .text.tcp_write
                0x00009548       0x80 ../common/ethernet/LMlwip/src/core/tcp_out.o
                0x00009548                tcp_write
 .text.tcp_enqueue
                0x000095c8      0x740 ../common/ethernet/LMlwip/src/core/tcp_out.o
                0x000095c8                tcp_enqueue
 .text.tcp_output
                0x00009d08      0x6ec ../common/ethernet/LMlwip/src/core/tcp_out.o
                0x00009d08                tcp_output
 .text.tcp_output_segment
                0x0000a3f4      0x210 ../common/ethernet/LMlwip/src/core/tcp_out.o
 .text.tcp_rst  0x0000a604      0x2b8 ../common/ethernet/LMlwip/src/core/tcp_out.o
                0x0000a604                tcp_rst
 .text.tcp_rexmit_rto
                0x0000a8bc       0x98 ../common/ethernet/LMlwip/src/core/tcp_out.o
                0x0000a8bc                tcp_rexmit_rto
 .text.tcp_rexmit
                0x0000a954       0x8c ../common/ethernet/LMlwip/src/core/tcp_out.o
                0x0000a954                tcp_rexmit
 .text.tcp_keepalive
                0x0000a9e0      0x2d0 ../common/ethernet/LMlwip/src/core/tcp_out.o
                0x0000a9e0                tcp_keepalive
 .text.tcp_zero_window_probe
                0x0000acb0      0x310 ../common/ethernet/LMlwip/src/core/tcp_out.o
                0x0000acb0                tcp_zero_window_probe
 .text          0x0000afc0        0x0 ../common/ethernet/LMlwip/src/core/tcp_in.o
 .text.tcp_input
                0x0000afc0      0xaa0 ../common/ethernet/LMlwip/src/core/tcp_in.o
                0x0000afc0                tcp_input
 .text.tcp_listen_input
                0x0000ba60      0x2a4 ../common/ethernet/LMlwip/src/core/tcp_in.o
 .text.tcp_timewait_input
                0x0000bd04       0x84 ../common/ethernet/LMlwip/src/core/tcp_in.o
 .text.tcp_process
                0x0000bd88      0x8e4 ../common/ethernet/LMlwip/src/core/tcp_in.o
 .text.tcp_receive
                0x0000c66c     0x1510 ../common/ethernet/LMlwip/src/core/tcp_in.o
 .text.tcp_parseopt
                0x0000db7c      0x11c ../common/ethernet/LMlwip/src/core/tcp_in.o
 .text          0x0000dc98        0x0 ../common/ethernet/LMlwip/src/core/tcp.o
 .text.tcp_tmr  0x0000dc98       0x40 ../common/ethernet/LMlwip/src/core/tcp.o
                0x0000dc98                tcp_tmr
 .text.tcp_close
                0x0000dcd8      0x1d0 ../common/ethernet/LMlwip/src/core/tcp.o
                0x0000dcd8                tcp_close
 .text.tcp_abort
                0x0000dea8      0x104 ../common/ethernet/LMlwip/src/core/tcp.o
                0x0000dea8                tcp_abort
 .text.tcp_bind
                0x0000dfac      0x2a8 ../common/ethernet/LMlwip/src/core/tcp.o
                0x0000dfac                tcp_bind
 .text.tcp_accept_null
                0x0000e254       0x20 ../common/ethernet/LMlwip/src/core/tcp.o
 .text.tcp_listen_with_backlog
                0x0000e274      0x18c ../common/ethernet/LMlwip/src/core/tcp.o
                0x0000e274                tcp_listen_with_backlog
 .text.tcp_recved
                0x0000e400       0xe0 ../common/ethernet/LMlwip/src/core/tcp.o
                0x0000e400                tcp_recved
 .text.tcp_new_port
                0x0000e4e0       0xd8 ../common/ethernet/LMlwip/src/core/tcp.o
 .text.tcp_connect
                0x0000e5b8      0x20c ../common/ethernet/LMlwip/src/core/tcp.o
                0x0000e5b8                tcp_connect
 .text.tcp_slowtmr
                0x0000e7c4      0x460 ../common/ethernet/LMlwip/src/core/tcp.o
                0x0000e7c4                tcp_slowtmr
 .text.tcp_fasttmr
                0x0000ec24       0xb4 ../common/ethernet/LMlwip/src/core/tcp.o
                0x0000ec24                tcp_fasttmr
 .text.tcp_segs_free
                0x0000ecd8       0x3c ../common/ethernet/LMlwip/src/core/tcp.o
                0x0000ecd8                tcp_segs_free
 .text.tcp_seg_free
                0x0000ed14       0x40 ../common/ethernet/LMlwip/src/core/tcp.o
                0x0000ed14                tcp_seg_free
 .text.tcp_setprio
                0x0000ed54       0x1c ../common/ethernet/LMlwip/src/core/tcp.o
                0x0000ed54                tcp_setprio
 .text.tcp_seg_copy
                0x0000ed70       0x54 ../common/ethernet/LMlwip/src/core/tcp.o
                0x0000ed70                tcp_seg_copy
 .text.tcp_recv_null
                0x0000edc4       0x48 ../common/ethernet/LMlwip/src/core/tcp.o
 .text.tcp_kill_prio
                0x0000ee0c       0x94 ../common/ethernet/LMlwip/src/core/tcp.o
 .text.tcp_kill_timewait
                0x0000eea0       0x70 ../common/ethernet/LMlwip/src/core/tcp.o
 .text.tcp_alloc
                0x0000ef10      0x160 ../common/ethernet/LMlwip/src/core/tcp.o
                0x0000ef10                tcp_alloc
 .text.tcp_new  0x0000f070       0x14 ../common/ethernet/LMlwip/src/core/tcp.o
                0x0000f070                tcp_new
 .text.tcp_arg  0x0000f084       0x1c ../common/ethernet/LMlwip/src/core/tcp.o
                0x0000f084                tcp_arg
 .text.tcp_recv
                0x0000f0a0       0x1c ../common/ethernet/LMlwip/src/core/tcp.o
                0x0000f0a0                tcp_recv
 .text.tcp_sent
                0x0000f0bc       0x1c ../common/ethernet/LMlwip/src/core/tcp.o
                0x0000f0bc                tcp_sent
 .text.tcp_err  0x0000f0d8       0x1c ../common/ethernet/LMlwip/src/core/tcp.o
                0x0000f0d8                tcp_err
 .text.tcp_accept
                0x0000f0f4       0x1c ../common/ethernet/LMlwip/src/core/tcp.o
                0x0000f0f4                tcp_accept
 .text.tcp_poll
                0x0000f110       0x28 ../common/ethernet/LMlwip/src/core/tcp.o
                0x0000f110                tcp_poll
 .text.tcp_pcb_purge
                0x0000f138       0x80 ../common/ethernet/LMlwip/src/core/tcp.o
                0x0000f138                tcp_pcb_purge
 .text.tcp_pcb_remove
                0x0000f1b8       0xe0 ../common/ethernet/LMlwip/src/core/tcp.o
                0x0000f1b8                tcp_pcb_remove
 .text.tcp_next_iss
                0x0000f298       0x38 ../common/ethernet/LMlwip/src/core/tcp.o
                0x0000f298                tcp_next_iss
 .text.tcp_eff_send_mss
                0x0000f2d0       0x48 ../common/ethernet/LMlwip/src/core/tcp.o
                0x0000f2d0                tcp_eff_send_mss
 .text          0x0000f318        0x0 ../common/ethernet/LMlwip/src/core/init.o
 .text.lwip_init
                0x0000f318       0x18 ../common/ethernet/LMlwip/src/core/init.o
                0x0000f318                lwip_init
 .text          0x0000f330        0x0 ../common/ethernet/LMlwip/src/core/mem.o
 .text          0x0000f330        0x0 ../common/ethernet/LMlwip/src/core/raw.o
 .text.raw_input
                0x0000f330       0xd0 ../common/ethernet/LMlwip/src/core/raw.o
                0x0000f330                raw_input
 .text.raw_bind
                0x0000f400       0x54 ../common/ethernet/LMlwip/src/core/raw.o
                0x0000f400                raw_bind
 .text.raw_connect
                0x0000f454       0x54 ../common/ethernet/LMlwip/src/core/raw.o
                0x0000f454                raw_connect
 .text.raw_recv
                0x0000f4a8       0x24 ../common/ethernet/LMlwip/src/core/raw.o
                0x0000f4a8                raw_recv
 .text.raw_sendto
                0x0000f4cc       0xec ../common/ethernet/LMlwip/src/core/raw.o
                0x0000f4cc                raw_sendto
 .text.raw_send
                0x0000f5b8       0x2c ../common/ethernet/LMlwip/src/core/raw.o
                0x0000f5b8                raw_send
 .text.raw_remove
                0x0000f5e4       0x78 ../common/ethernet/LMlwip/src/core/raw.o
                0x0000f5e4                raw_remove
 .text.raw_new  0x0000f65c       0x6c ../common/ethernet/LMlwip/src/core/raw.o
                0x0000f65c                raw_new
 .text          0x0000f6c8        0x0 ../common/ethernet/LMlwip/src/core/memp.o
 .text.memp_sanity
                0x0000f6c8       0x98 ../common/ethernet/LMlwip/src/core/memp.o
 .text.memp_overflow_check_element
                0x0000f760       0x58 ../common/ethernet/LMlwip/src/core/memp.o
 .text.memp_overflow_check_all
                0x0000f7b8       0x84 ../common/ethernet/LMlwip/src/core/memp.o
 .text.memp_overflow_init
                0x0000f83c       0xa8 ../common/ethernet/LMlwip/src/core/memp.o
 .text.memp_init
                0x0000f8e4       0xa8 ../common/ethernet/LMlwip/src/core/memp.o
                0x0000f8e4                memp_init
 .text.memp_malloc_fn
                0x0000f98c       0x84 ../common/ethernet/LMlwip/src/core/memp.o
                0x0000f98c                memp_malloc_fn
 .text.memp_free
                0x0000fa10       0x5c ../common/ethernet/LMlwip/src/core/memp.o
                0x0000fa10                memp_free
 .text          0x0000fa6c        0x0 ../common/ethernet/LMlwip/src/core/sys.o
 .text.sys_mbox_fetch
                0x0000fa6c       0xc4 ../common/ethernet/LMlwip/src/core/sys.o
                0x0000fa6c                sys_mbox_fetch
 .text.sys_sem_wait
                0x0000fb30       0xbc ../common/ethernet/LMlwip/src/core/sys.o
                0x0000fb30                sys_sem_wait
 .text.sys_timeout
                0x0000fbec      0x100 ../common/ethernet/LMlwip/src/core/sys.o
                0x0000fbec                sys_timeout
 .text.sys_untimeout
                0x0000fcec       0x98 ../common/ethernet/LMlwip/src/core/sys.o
                0x0000fcec                sys_untimeout
 .text.sswt_handler
                0x0000fd84       0x28 ../common/ethernet/LMlwip/src/core/sys.o
 .text.sys_sem_wait_timeout
                0x0000fdac       0x6c ../common/ethernet/LMlwip/src/core/sys.o
                0x0000fdac                sys_sem_wait_timeout
 .text.sys_msleep
                0x0000fe18       0x2c ../common/ethernet/LMlwip/src/core/sys.o
                0x0000fe18                sys_msleep
 .text          0x0000fe44        0x0 ../common/ethernet/LMlwip/src/api/tcpip.o
 .text.tcpip_tcp_timer
                0x0000fe44       0x54 ../common/ethernet/LMlwip/src/api/tcpip.o
 .text.tcp_timer_needed
                0x0000fe98       0x54 ../common/ethernet/LMlwip/src/api/tcpip.o
                0x0000fe98                tcp_timer_needed
 .text.arp_timer
                0x0000feec       0x28 ../common/ethernet/LMlwip/src/api/tcpip.o
 .text.dhcp_timer_coarse
                0x0000ff14       0x28 ../common/ethernet/LMlwip/src/api/tcpip.o
 .text.dhcp_timer_fine
                0x0000ff3c       0x28 ../common/ethernet/LMlwip/src/api/tcpip.o
 .text.dns_timer
                0x0000ff64       0x28 ../common/ethernet/LMlwip/src/api/tcpip.o
 .text.tcpip_thread
                0x0000ff8c      0x160 ../common/ethernet/LMlwip/src/api/tcpip.o
 .text.tcpip_input
                0x000100ec       0x9c ../common/ethernet/LMlwip/src/api/tcpip.o
                0x000100ec                tcpip_input
 .text.tcpip_callback_with_block
                0x00010188       0xb8 ../common/ethernet/LMlwip/src/api/tcpip.o
                0x00010188                tcpip_callback_with_block
 .text.tcpip_timeout
                0x00010240       0x88 ../common/ethernet/LMlwip/src/api/tcpip.o
                0x00010240                tcpip_timeout
 .text.tcpip_apimsg
                0x000102c8       0x64 ../common/ethernet/LMlwip/src/api/tcpip.o
                0x000102c8                tcpip_apimsg
 .text.tcpip_init
                0x0001032c       0x64 ../common/ethernet/LMlwip/src/api/tcpip.o
                0x0001032c                tcpip_init
 .text          0x00010390        0x0 ../common/ethernet/LMlwip/src/api/api_msg.o
 .text.recv_raw
                0x00010390      0x114 ../common/ethernet/LMlwip/src/api/api_msg.o
 .text.recv_udp
                0x000104a4       0xc4 ../common/ethernet/LMlwip/src/api/api_msg.o
 .text.recv_tcp
                0x00010568       0xa8 ../common/ethernet/LMlwip/src/api/api_msg.o
 .text.poll_tcp
                0x00010610       0x3c ../common/ethernet/LMlwip/src/api/api_msg.o
 .text.sent_tcp
                0x0001064c       0x78 ../common/ethernet/LMlwip/src/api/api_msg.o
 .text.err_tcp  0x000106c4       0xc8 ../common/ethernet/LMlwip/src/api/api_msg.o
 .text.setup_tcp
                0x0001078c       0x5c ../common/ethernet/LMlwip/src/api/api_msg.o
 .text.accept_function
                0x000107e8       0xac ../common/ethernet/LMlwip/src/api/api_msg.o
 .text.pcb_new  0x00010894      0x114 ../common/ethernet/LMlwip/src/api/api_msg.o
 .text.do_newconn
                0x000109a8       0x2c ../common/ethernet/LMlwip/src/api/api_msg.o
                0x000109a8                do_newconn
 .text.netconn_alloc
                0x000109d4       0xdc ../common/ethernet/LMlwip/src/api/api_msg.o
                0x000109d4                netconn_alloc
 .text.netconn_free
                0x00010ab0       0xbc ../common/ethernet/LMlwip/src/api/api_msg.o
                0x00010ab0                netconn_free
 .text.do_close_internal
                0x00010b6c       0xfc ../common/ethernet/LMlwip/src/api/api_msg.o
 .text.do_delconn
                0x00010c68       0xd0 ../common/ethernet/LMlwip/src/api/api_msg.o
                0x00010c68                do_delconn
 .text.do_bind  0x00010d38       0xc0 ../common/ethernet/LMlwip/src/api/api_msg.o
                0x00010d38                do_bind
 .text.do_connected
                0x00010df8       0x64 ../common/ethernet/LMlwip/src/api/api_msg.o
 .text.do_connect
                0x00010e5c       0xdc ../common/ethernet/LMlwip/src/api/api_msg.o
                0x00010e5c                do_connect
 .text.do_disconnect
                0x00010f38       0x38 ../common/ethernet/LMlwip/src/api/api_msg.o
                0x00010f38                do_disconnect
 .text.do_listen
                0x00010f70      0x108 ../common/ethernet/LMlwip/src/api/api_msg.o
                0x00010f70                do_listen
 .text.do_send  0x00011078       0xf4 ../common/ethernet/LMlwip/src/api/api_msg.o
                0x00011078                do_send
 .text.do_recv  0x0001116c       0x50 ../common/ethernet/LMlwip/src/api/api_msg.o
                0x0001116c                do_recv
 .text.do_writemore
                0x000111bc      0x190 ../common/ethernet/LMlwip/src/api/api_msg.o
 .text.do_write
                0x0001134c       0x70 ../common/ethernet/LMlwip/src/api/api_msg.o
                0x0001134c                do_write
 .text.do_getaddr
                0x000113bc      0x128 ../common/ethernet/LMlwip/src/api/api_msg.o
                0x000113bc                do_getaddr
 .text.do_close
                0x000114e4       0x50 ../common/ethernet/LMlwip/src/api/api_msg.o
                0x000114e4                do_close
 .text.do_dns_found
                0x00011534       0x60 ../common/ethernet/LMlwip/src/api/api_msg.o
 .text.do_gethostbyname
                0x00011594       0x50 ../common/ethernet/LMlwip/src/api/api_msg.o
                0x00011594                do_gethostbyname
 .text          0x000115e4        0x0 ../common/ethernet/LMlwip/src/api/sockets.o
 .text.lwip_socket_init
                0x000115e4       0x30 ../common/ethernet/LMlwip/src/api/sockets.o
                0x000115e4                lwip_socket_init
 .text.get_socket
                0x00011614       0x5c ../common/ethernet/LMlwip/src/api/sockets.o
 .text.alloc_socket
                0x00011670      0x170 ../common/ethernet/LMlwip/src/api/sockets.o
 .text.lwip_accept
                0x000117e0      0x1d0 ../common/ethernet/LMlwip/src/api/sockets.o
                0x000117e0                lwip_accept
 .text.lwip_bind
                0x000119b0       0xd4 ../common/ethernet/LMlwip/src/api/sockets.o
                0x000119b0                lwip_bind
 .text.lwip_close
                0x00011a84       0x90 ../common/ethernet/LMlwip/src/api/sockets.o
                0x00011a84                lwip_close
 .text.lwip_connect
                0x00011b14       0xf0 ../common/ethernet/LMlwip/src/api/sockets.o
                0x00011b14                lwip_connect
 .text.lwip_listen
                0x00011c04       0xac ../common/ethernet/LMlwip/src/api/sockets.o
                0x00011c04                lwip_listen
 .text.lwip_recvfrom
                0x00011cb0      0x2d8 ../common/ethernet/LMlwip/src/api/sockets.o
                0x00011cb0                lwip_recvfrom
 .text.lwip_read
                0x00011f88       0x34 ../common/ethernet/LMlwip/src/api/sockets.o
                0x00011f88                lwip_read
 .text.lwip_recv
                0x00011fbc       0x34 ../common/ethernet/LMlwip/src/api/sockets.o
                0x00011fbc                lwip_recv
 .text.lwip_send
                0x00011ff0       0xd4 ../common/ethernet/LMlwip/src/api/sockets.o
                0x00011ff0                lwip_send
 .text.lwip_sendto
                0x000120c4      0x14c ../common/ethernet/LMlwip/src/api/sockets.o
                0x000120c4                lwip_sendto
 .text.lwip_socket
                0x00012210       0xd4 ../common/ethernet/LMlwip/src/api/sockets.o
                0x00012210                lwip_socket
 .text.lwip_write
                0x000122e4       0x28 ../common/ethernet/LMlwip/src/api/sockets.o
                0x000122e4                lwip_write
 .text.lwip_selscan
                0x0001230c      0x1b4 ../common/ethernet/LMlwip/src/api/sockets.o
 .text.lwip_select
                0x000124c0      0x344 ../common/ethernet/LMlwip/src/api/sockets.o
                0x000124c0                lwip_select
 .text.event_callback
                0x00012804      0x1e0 ../common/ethernet/LMlwip/src/api/sockets.o
 .text.lwip_shutdown
                0x000129e4       0x1c ../common/ethernet/LMlwip/src/api/sockets.o
                0x000129e4                lwip_shutdown
 .text.lwip_getaddrname
                0x00012a00       0xac ../common/ethernet/LMlwip/src/api/sockets.o
 .text.lwip_getpeername
                0x00012aac       0x28 ../common/ethernet/LMlwip/src/api/sockets.o
                0x00012aac                lwip_getpeername
 .text.lwip_getsockname
                0x00012ad4       0x28 ../common/ethernet/LMlwip/src/api/sockets.o
                0x00012ad4                lwip_getsockname
 .text.lwip_getsockopt
                0x00012afc      0x1ec ../common/ethernet/LMlwip/src/api/sockets.o
                0x00012afc                lwip_getsockopt
 .text.lwip_getsockopt_internal
                0x00012ce8      0x1b8 ../common/ethernet/LMlwip/src/api/sockets.o
 .text.lwip_setsockopt
                0x00012ea0      0x1a0 ../common/ethernet/LMlwip/src/api/sockets.o
                0x00012ea0                lwip_setsockopt
 .text.lwip_setsockopt_internal
                0x00013040      0x17c ../common/ethernet/LMlwip/src/api/sockets.o
 .text.lwip_ioctl
                0x000131bc      0x11c ../common/ethernet/LMlwip/src/api/sockets.o
                0x000131bc                lwip_ioctl
 .text          0x000132d8        0x0 ../common/ethernet/LMlwip/src/api/netbuf.o
 .text.netbuf_new
                0x000132d8       0x54 ../common/ethernet/LMlwip/src/api/netbuf.o
                0x000132d8                netbuf_new
 .text.netbuf_delete
                0x0001332c       0x44 ../common/ethernet/LMlwip/src/api/netbuf.o
                0x0001332c                netbuf_delete
 .text.netbuf_alloc
                0x00013370       0x70 ../common/ethernet/LMlwip/src/api/netbuf.o
                0x00013370                netbuf_alloc
 .text.netbuf_free
                0x000133e0       0x38 ../common/ethernet/LMlwip/src/api/netbuf.o
                0x000133e0                netbuf_free
 .text.netbuf_ref
                0x00013418       0x90 ../common/ethernet/LMlwip/src/api/netbuf.o
                0x00013418                netbuf_ref
 .text.netbuf_chain
                0x000134a8       0x40 ../common/ethernet/LMlwip/src/api/netbuf.o
                0x000134a8                netbuf_chain
 .text.netbuf_data
                0x000134e8       0x70 ../common/ethernet/LMlwip/src/api/netbuf.o
                0x000134e8                netbuf_data
 .text.netbuf_next
                0x00013558       0x5c ../common/ethernet/LMlwip/src/api/netbuf.o
                0x00013558                netbuf_next
 .text.netbuf_first
                0x000135b4       0x20 ../common/ethernet/LMlwip/src/api/netbuf.o
                0x000135b4                netbuf_first
 .text          0x000135d4        0x0 ../common/ethernet/LMlwip/src/api/api_lib.o
 .text.netconn_new_with_proto_and_callback
                0x000135d4       0x80 ../common/ethernet/LMlwip/src/api/api_lib.o
                0x000135d4                netconn_new_with_proto_and_callback
 .text.netconn_delete
                0x00013654       0x50 ../common/ethernet/LMlwip/src/api/api_lib.o
                0x00013654                netconn_delete
 .text.netconn_type
                0x000136a4       0x2c ../common/ethernet/LMlwip/src/api/api_lib.o
                0x000136a4                netconn_type
 .text.netconn_getaddr
                0x000136d0       0x74 ../common/ethernet/LMlwip/src/api/api_lib.o
                0x000136d0                netconn_getaddr
 .text.netconn_bind
                0x00013744       0x50 ../common/ethernet/LMlwip/src/api/api_lib.o
                0x00013744                netconn_bind
 .text.netconn_connect
                0x00013794       0x50 ../common/ethernet/LMlwip/src/api/api_lib.o
                0x00013794                netconn_connect
 .text.netconn_disconnect
                0x000137e4       0x44 ../common/ethernet/LMlwip/src/api/api_lib.o
                0x000137e4                netconn_disconnect
 .text.netconn_listen_with_backlog
                0x00013828       0x48 ../common/ethernet/LMlwip/src/api/api_lib.o
                0x00013828                netconn_listen_with_backlog
 .text.netconn_accept
                0x00013870       0x64 ../common/ethernet/LMlwip/src/api/api_lib.o
                0x00013870                netconn_accept
 .text.netconn_recv
                0x000138d4      0x1e0 ../common/ethernet/LMlwip/src/api/api_lib.o
                0x000138d4                netconn_recv
 .text.netconn_sendto
                0x00013ab4       0x48 ../common/ethernet/LMlwip/src/api/api_lib.o
                0x00013ab4                netconn_sendto
 .text.netconn_send
                0x00013afc       0x48 ../common/ethernet/LMlwip/src/api/api_lib.o
                0x00013afc                netconn_send
 .text.netconn_write
                0x00013b44       0x68 ../common/ethernet/LMlwip/src/api/api_lib.o
                0x00013b44                netconn_write
 .text.netconn_close
                0x00013bac       0x44 ../common/ethernet/LMlwip/src/api/api_lib.o
                0x00013bac                netconn_close
 .text.netconn_gethostbyname
                0x00013bf0       0x88 ../common/ethernet/LMlwip/src/api/api_lib.o
                0x00013bf0                netconn_gethostbyname
 .text          0x00013c78        0x0 ../common/ethernet/LMlwip/src/netif/etharp.o
 .text.free_etharp_q
                0x00013c78       0x38 ../common/ethernet/LMlwip/src/netif/etharp.o
 .text.etharp_tmr
                0x00013cb0      0x170 ../common/ethernet/LMlwip/src/netif/etharp.o
                0x00013cb0                etharp_tmr
 .text.find_entry
                0x00013e20      0x474 ../common/ethernet/LMlwip/src/netif/etharp.o
 .text.etharp_send_ip
                0x00014294       0xa0 ../common/ethernet/LMlwip/src/netif/etharp.o
 .text.update_arp_entry
                0x00014334      0x1f8 ../common/ethernet/LMlwip/src/netif/etharp.o
 .text.etharp_find_addr
                0x0001452c       0xa8 ../common/ethernet/LMlwip/src/netif/etharp.o
                0x0001452c                etharp_find_addr
 .text.etharp_ip_input
                0x000145d4       0x70 ../common/ethernet/LMlwip/src/netif/etharp.o
                0x000145d4                etharp_ip_input
 .text.etharp_arp_input
                0x00014644      0x24c ../common/ethernet/LMlwip/src/netif/etharp.o
                0x00014644                etharp_arp_input
 .text.etharp_output
                0x00014890      0x1c4 ../common/ethernet/LMlwip/src/netif/etharp.o
                0x00014890                etharp_output
 .text.etharp_query
                0x00014a54      0x320 ../common/ethernet/LMlwip/src/netif/etharp.o
                0x00014a54                etharp_query
 .text.etharp_raw
                0x00014d74      0x21c ../common/ethernet/LMlwip/src/netif/etharp.o
 .text.etharp_request
                0x00014f90       0x5c ../common/ethernet/LMlwip/src/netif/etharp.o
                0x00014f90                etharp_request
 .text.ethernet_input
                0x00014fec       0x9c ../common/ethernet/LMlwip/src/netif/etharp.o
                0x00014fec                ethernet_input
 .text          0x00015088        0x0 ../common/fatfs/ff.o
 .text.mem_cpy  0x00015088       0x50 ../common/fatfs/ff.o
 .text.mem_set  0x000150d8       0x44 ../common/fatfs/ff.o
 .text.mem_cmp  0x0001511c       0x78 ../common/fatfs/ff.o
 .text.chk_chr  0x00015194       0x38 ../common/fatfs/ff.o
 .text.move_window
                0x000151cc       0xdc ../common/fatfs/ff.o
 .text.sync     0x000152a8      0x1cc ../common/fatfs/ff.o
 .text.get_fat  0x00015474      0x214 ../common/fatfs/ff.o
 .text.put_fat  0x00015688      0x294 ../common/fatfs/ff.o
 .text.remove_chain
                0x0001591c       0xa8 ../common/fatfs/ff.o
 .text.create_chain
                0x000159c4      0x12c ../common/fatfs/ff.o
 .text.clust2sect
                0x00015af0       0x4c ../common/fatfs/ff.o
 .text.dir_seek
                0x00015b3c      0x128 ../common/fatfs/ff.o
 .text.dir_next
                0x00015c64      0x1fc ../common/fatfs/ff.o
 .text.dir_find
                0x00015e60       0xa0 ../common/fatfs/ff.o
 .text.dir_read
                0x00015f00       0x98 ../common/fatfs/ff.o
 .text.dir_register
                0x00015f98       0xd0 ../common/fatfs/ff.o
 .text.dir_remove
                0x00016068       0x58 ../common/fatfs/ff.o
 .text.create_name
                0x000160c0      0x220 ../common/fatfs/ff.o
 .text.get_fileinfo
                0x000162e0      0x198 ../common/fatfs/ff.o
 .text.follow_path
                0x00016478      0x10c ../common/fatfs/ff.o
 .text.check_fs
                0x00016584       0xd4 ../common/fatfs/ff.o
 .text.auto_mount
                0x00016658      0x5d0 ../common/fatfs/ff.o
 .text.validate
                0x00016c28       0x5c ../common/fatfs/ff.o
 .text.f_mount  0x00016c84       0x6c ../common/fatfs/ff.o
                0x00016c84                f_mount
 .text.f_open   0x00016cf0      0x388 ../common/fatfs/ff.o
                0x00016cf0                f_open
 .text.f_read   0x00017078      0x344 ../common/fatfs/ff.o
                0x00017078                f_read
 .text.f_write  0x000173bc      0x3a0 ../common/fatfs/ff.o
                0x000173bc                f_write
 .text.f_sync   0x0001775c      0x1c0 ../common/fatfs/ff.o
                0x0001775c                f_sync
 .text.f_close  0x0001791c       0x2c ../common/fatfs/ff.o
                0x0001791c                f_close
 .text.f_lseek  0x00017948      0x340 ../common/fatfs/ff.o
                0x00017948                f_lseek
 .text.f_opendir
                0x00017c88       0xe4 ../common/fatfs/ff.o
                0x00017c88                f_opendir
 .text.f_readdir
                0x00017d6c       0x9c ../common/fatfs/ff.o
                0x00017d6c                f_readdir
 .text.f_stat   0x00017e08       0x78 ../common/fatfs/ff.o
                0x00017e08                f_stat
 .text.f_getfree
                0x00017e80      0x1e8 ../common/fatfs/ff.o
                0x00017e80                f_getfree
 .text.f_truncate
                0x00018068      0x134 ../common/fatfs/ff.o
                0x00018068                f_truncate
 .text.f_unlink
                0x0001819c      0x1b0 ../common/fatfs/ff.o
                0x0001819c                f_unlink
 .text.f_mkdir  0x0001834c      0x380 ../common/fatfs/ff.o
                0x0001834c                f_mkdir
 .text.f_chmod  0x000186cc       0xc4 ../common/fatfs/ff.o
                0x000186cc                f_chmod
 .text.f_utime  0x00018790       0xcc ../common/fatfs/ff.o
                0x00018790                f_utime
 .text.f_rename
                0x0001885c      0x25c ../common/fatfs/ff.o
                0x0001885c                f_rename
 .text          0x00018ab8        0x0 ../common/fatfs/mmc-ek-lm3s8962.o
 .text.SELECT   0x00018ab8       0x20 ../common/fatfs/mmc-ek-lm3s8962.o
 .text.DESELECT
                0x00018ad8       0x1c ../common/fatfs/mmc-ek-lm3s8962.o
 .text.xmit_spi
                0x00018af4       0x34 ../common/fatfs/mmc-ek-lm3s8962.o
 .text.rcvr_spi
                0x00018b28       0x38 ../common/fatfs/mmc-ek-lm3s8962.o
 .text.rcvr_spi_m
                0x00018b60       0x1c ../common/fatfs/mmc-ek-lm3s8962.o
 .text.wait_ready
                0x00018b7c       0x44 ../common/fatfs/mmc-ek-lm3s8962.o
 .text.send_initial_clock_train
                0x00018bc0       0x7c ../common/fatfs/mmc-ek-lm3s8962.o
 .text.power_on
                0x00018c3c       0xcc ../common/fatfs/mmc-ek-lm3s8962.o
 .text.set_max_speed
                0x00018d08       0x70 ../common/fatfs/mmc-ek-lm3s8962.o
 .text.power_off
                0x00018d78       0x18 ../common/fatfs/mmc-ek-lm3s8962.o
 .text.chk_power
                0x00018d90       0x18 ../common/fatfs/mmc-ek-lm3s8962.o
 .text.rcvr_datablock
                0x00018da8       0x8c ../common/fatfs/mmc-ek-lm3s8962.o
 .text.xmit_datablock
                0x00018e34       0xa0 ../common/fatfs/mmc-ek-lm3s8962.o
 .text.send_cmd
                0x00018ed4       0xc0 ../common/fatfs/mmc-ek-lm3s8962.o
 .text.disk_initialize
                0x00018f94      0x268 ../common/fatfs/mmc-ek-lm3s8962.o
                0x00018f94                disk_initialize
 .text.disk_status
                0x000191fc       0x34 ../common/fatfs/mmc-ek-lm3s8962.o
                0x000191fc                disk_status
 .text.disk_read
                0x00019230       0xf4 ../common/fatfs/mmc-ek-lm3s8962.o
                0x00019230                disk_read
 .text.disk_write
                0x00019324      0x148 ../common/fatfs/mmc-ek-lm3s8962.o
                0x00019324                disk_write
 .text.disk_ioctl
                0x0001946c      0x2b4 ../common/fatfs/mmc-ek-lm3s8962.o
                0x0001946c                disk_ioctl
 .text.disk_timerproc
                0x00019720       0x5c ../common/fatfs/mmc-ek-lm3s8962.o
                0x00019720                disk_timerproc
 .text.get_fattime
                0x0001977c       0x14 ../common/fatfs/mmc-ek-lm3s8962.o
                0x0001977c                get_fattime
 .text          0x00019790        0x0 ../common/fatfs/SDcard.o
 .text.vSDcardTask
                0x00019790       0x58 ../common/fatfs/SDcard.o
                0x00019790                vSDcardTask
 .text.Cmd_ls   0x000197e8      0x664 ../common/fatfs/SDcard.o
                0x000197e8                Cmd_ls
 .text          0x00019e4c        0x0 ethernet/ETHIsr.o
 .text.ETH0IntHandler
                0x00019e4c      0x32c ethernet/ETHIsr.o
                0x00019e4c                ETH0IntHandler
 .text.ETHServiceTaskInit
                0x0001a178      0x1b8 ethernet/ETHIsr.o
                0x0001a178                ETHServiceTaskInit
 .text.ETHServiceTaskEnable
                0x0001a330      0x208 ethernet/ETHIsr.o
                0x0001a330                ETHServiceTaskEnable
 .text.ETHServiceTaskDisable
                0x0001a538       0xbc ethernet/ETHIsr.o
                0x0001a538                ETHServiceTaskDisable
 .text.ETHServiceTaskLastError
                0x0001a5f4      0x120 ethernet/ETHIsr.o
                0x0001a5f4                ETHServiceTaskLastError
 .text.ETHServiceTaskLinkStatus
                0x0001a714      0x12c ethernet/ETHIsr.o
                0x0001a714                ETHServiceTaskLinkStatus
 .text.ETHServiceTaskMACAddress
                0x0001a840       0xc4 ethernet/ETHIsr.o
                0x0001a840                ETHServiceTaskMACAddress
 .text.ETHServiceTaskFlush
                0x0001a904      0x38c ethernet/ETHIsr.o
                0x0001a904                ETHServiceTaskFlush
 .text.ETHServiceTaskPacketAvail
                0x0001ac90       0xcc ethernet/ETHIsr.o
                0x0001ac90                ETHServiceTaskPacketAvail
 .text.ETHServiceTaskEnableReceive
                0x0001ad5c       0xc4 ethernet/ETHIsr.o
                0x0001ad5c                ETHServiceTaskEnableReceive
 .text.ETHServiceTaskWaitReady
                0x0001ae20      0x118 ethernet/ETHIsr.o
                0x0001ae20                ETHServiceTaskWaitReady
 .text          0x0001af38        0x0 ethernet/LWIPStack.o
 .text.low_level_init
                0x0001af38       0xb4 ethernet/LWIPStack.o
 .text.low_level_input
                0x0001afec      0x118 ethernet/LWIPStack.o
 .text.ethernetif_input
                0x0001b104       0x74 ethernet/LWIPStack.o
 .text.low_level_output
                0x0001b178       0xec ethernet/LWIPStack.o
 .text.low_level_transmit
                0x0001b264      0x194 ethernet/LWIPStack.o
 .text.ethernetif_init
                0x0001b3f8       0x4c ethernet/LWIPStack.o
                0x0001b3f8                ethernetif_init
 .text.LWIPServiceTaskInit
                0x0001b444      0x1ec ethernet/LWIPStack.o
                0x0001b444                LWIPServiceTaskInit
 .text.LWIPServiceTaskIPConfigGet
                0x0001b630       0x70 ethernet/LWIPStack.o
                0x0001b630                LWIPServiceTaskIPConfigGet
 .text.LWIPServiceTaskMACGet
                0x0001b6a0       0x40 ethernet/LWIPStack.o
                0x0001b6a0                LWIPServiceTaskMACGet
 .text.lwIPNetworkConfigChange
                0x0001b6e0      0x148 ethernet/LWIPStack.o
                0x0001b6e0                lwIPNetworkConfigChange
 .text          0x0001b828        0x0 httpd/lmi_fs.o
 .text.fs_open  0x0001b828      0x5dc httpd/lmi_fs.o
                0x0001b828                fs_open
 .text.fs_close
                0x0001be04       0x50 httpd/lmi_fs.o
                0x0001be04                fs_close
 .text.fs_read  0x0001be54       0xc4 httpd/lmi_fs.o
                0x0001be54                fs_read
 .text          0x0001bf18        0x0 httpd/httpd.o
 .text.conn_err
                0x0001bf18       0x50 httpd/httpd.o
 .text.close_conn
                0x0001bf68       0x74 httpd/httpd.o
 .text.extract_uri_parameters
                0x0001bfdc       0xec httpd/httpd.o
 .text.get_tag_insert
                0x0001c0c8       0xdc httpd/httpd.o
 .text.send_data
                0x0001c1a4      0x85c httpd/httpd.o
 .text.http_poll
                0x0001ca00       0x70 httpd/httpd.o
 .text.http_sent
                0x0001ca70       0x4c httpd/httpd.o
 .text.get_404_file
                0x0001cabc       0x5c httpd/httpd.o
 .text.http_recv
                0x0001cb18      0x3c4 httpd/httpd.o
 .text.http_accept
                0x0001cedc       0xa4 httpd/httpd.o
 .text.httpd_init
                0x0001cf80       0x48 httpd/httpd.o
                0x0001cf80                httpd_init
 .text.http_set_ssi_handler
                0x0001cfc8       0x3c httpd/httpd.o
                0x0001cfc8                http_set_ssi_handler
 .text.http_set_cgi_handlers
                0x0001d004       0x2c httpd/httpd.o
                0x0001d004                http_set_cgi_handlers
 .text          0x0001d030        0x0 httpd/cgifuncs.o
 .text.FindCGIParameter
                0x0001d030       0x58 httpd/cgifuncs.o
                0x0001d030                FindCGIParameter
 .text.IsValidHexDigit
                0x0001d088       0x4c httpd/cgifuncs.o
                0x0001d088                IsValidHexDigit
 .text.HexDigit
                0x0001d0d4       0x68 httpd/cgifuncs.o
                0x0001d0d4                HexDigit
 .text.DecodeHexEscape
                0x0001d13c       0x84 httpd/cgifuncs.o
                0x0001d13c                DecodeHexEscape
 .text.EncodeFormString
                0x0001d1c0       0xac httpd/cgifuncs.o
                0x0001d1c0                EncodeFormString
 .text.DecodeFormString
                0x0001d26c      0x10c httpd/cgifuncs.o
                0x0001d26c                DecodeFormString
 .text.CheckDecimalParam
                0x0001d378      0x164 httpd/cgifuncs.o
                0x0001d378                CheckDecimalParam
 .text.GetCGIParam
                0x0001d4dc       0x6c httpd/cgifuncs.o
                0x0001d4dc                GetCGIParam
 .text          0x0001d548        0x0 httpd/netbios.o
 .text.netbios_name_decoding
                0x0001d548      0x10c httpd/netbios.o
 .text.netbios_name_encoding
                0x0001d654       0xf4 httpd/netbios.o
                0x0001d654                netbios_name_encoding
 .text.netbios_recv
                0x0001d748      0x3b0 httpd/netbios.o
 .text.netbios_init
                0x0001daf8       0x40 httpd/netbios.o
                0x0001daf8                netbios_init
 .text          0x0001db38        0x0 startup.o
 .text.NmiSR    0x0001db38        0x4 startup.o
 .text.FaultISR
                0x0001db3c        0x4 startup.o
 .text.IntDefaultHandler
                0x0001db40        0x4 startup.o
 .text.uipprintf
                0x0001db44        0xc startup.o
                0x0001db44                uipprintf
 .text.ResetISR
                0x0001db50       0x70 startup.o
                0x0001db50                ResetISR
 .text          0x0001dbc0        0x0 ../common/drivers/LuminaryMicro/arm-none-eabi-gcc/libdriver.a(ethernet.o)
 .text.EthernetInitExpClk
                0x0001dbc0       0x14 ../common/drivers/LuminaryMicro/arm-none-eabi-gcc/libdriver.a(ethernet.o)
                0x0001dbc0                EthernetInitExpClk
 .text.EthernetConfigSet
                0x0001dbd4       0x30 ../common/drivers/LuminaryMicro/arm-none-eabi-gcc/libdriver.a(ethernet.o)
                0x0001dbd4                EthernetConfigSet
 .text.EthernetConfigGet
                0x0001dc04       0x18 ../common/drivers/LuminaryMicro/arm-none-eabi-gcc/libdriver.a(ethernet.o)
                0x0001dc04                EthernetConfigGet
 .text.EthernetMACAddrSet
                0x0001dc1c       0x38 ../common/drivers/LuminaryMicro/arm-none-eabi-gcc/libdriver.a(ethernet.o)
                0x0001dc1c                EthernetMACAddrSet
 .text.EthernetMACAddrGet
                0x0001dc54       0x34 ../common/drivers/LuminaryMicro/arm-none-eabi-gcc/libdriver.a(ethernet.o)
                0x0001dc54                EthernetMACAddrGet
 .text.EthernetEnable
                0x0001dc88       0x24 ../common/drivers/LuminaryMicro/arm-none-eabi-gcc/libdriver.a(ethernet.o)
                0x0001dc88                EthernetEnable
 .text.EthernetDisable
                0x0001dcac       0x24 ../common/drivers/LuminaryMicro/arm-none-eabi-gcc/libdriver.a(ethernet.o)
                0x0001dcac                EthernetDisable
 .text.EthernetPacketAvail
                0x0001dcd0        0xc ../common/drivers/LuminaryMicro/arm-none-eabi-gcc/libdriver.a(ethernet.o)
                0x0001dcd0                EthernetPacketAvail
 .text.EthernetSpaceAvail
                0x0001dcdc        0xc ../common/drivers/LuminaryMicro/arm-none-eabi-gcc/libdriver.a(ethernet.o)
                0x0001dcdc                EthernetSpaceAvail
 .text.EthernetPacketGetInternal
                0x0001dce8       0xa4 ../common/drivers/LuminaryMicro/arm-none-eabi-gcc/libdriver.a(ethernet.o)
 .text.EthernetPacketGetNonBlocking
                0x0001dd8c       0x18 ../common/drivers/LuminaryMicro/arm-none-eabi-gcc/libdriver.a(ethernet.o)
                0x0001dd8c                EthernetPacketGetNonBlocking
 .text.EthernetPacketGet
                0x0001dda4       0x18 ../common/drivers/LuminaryMicro/arm-none-eabi-gcc/libdriver.a(ethernet.o)
                0x0001dda4                EthernetPacketGet
 .text.EthernetPacketPutInternal
                0x0001ddbc       0x98 ../common/drivers/LuminaryMicro/arm-none-eabi-gcc/libdriver.a(ethernet.o)
 .text.EthernetPacketPutNonBlocking
                0x0001de54       0x14 ../common/drivers/LuminaryMicro/arm-none-eabi-gcc/libdriver.a(ethernet.o)
                0x0001de54                EthernetPacketPutNonBlocking
 .text.EthernetPacketPut
                0x0001de68       0x18 ../common/drivers/LuminaryMicro/arm-none-eabi-gcc/libdriver.a(ethernet.o)
                0x0001de68                EthernetPacketPut
 .text.EthernetIntEnable
                0x0001de80        0x8 ../common/drivers/LuminaryMicro/arm-none-eabi-gcc/libdriver.a(ethernet.o)
                0x0001de80                EthernetIntEnable
 .text.EthernetIntDisable
                0x0001de88        0xc ../common/drivers/LuminaryMicro/arm-none-eabi-gcc/libdriver.a(ethernet.o)
                0x0001de88                EthernetIntDisable
 .text.EthernetIntStatus
                0x0001de94        0xc ../common/drivers/LuminaryMicro/arm-none-eabi-gcc/libdriver.a(ethernet.o)
                0x0001de94                EthernetIntStatus
 .text.EthernetIntClear
                0x0001dea0        0x4 ../common/drivers/LuminaryMicro/arm-none-eabi-gcc/libdriver.a(ethernet.o)
                0x0001dea0                EthernetIntClear
 .text.EthernetPHYWrite
                0x0001dea4       0x30 ../common/drivers/LuminaryMicro/arm-none-eabi-gcc/libdriver.a(ethernet.o)
                0x0001dea4                EthernetPHYWrite
 .text.EthernetPHYRead
                0x0001ded4       0x28 ../common/drivers/LuminaryMicro/arm-none-eabi-gcc/libdriver.a(ethernet.o)
                0x0001ded4                EthernetPHYRead
 .text.EthernetIntUnregister
                0x0001defc       0x10 ../common/drivers/LuminaryMicro/arm-none-eabi-gcc/libdriver.a(ethernet.o)
                0x0001defc                EthernetIntUnregister
 .text.EthernetIntRegister
                0x0001df0c       0x10 ../common/drivers/LuminaryMicro/arm-none-eabi-gcc/libdriver.a(ethernet.o)
                0x0001df0c                EthernetIntRegister
 .text          0x0001df1c        0x0 ../common/drivers/LuminaryMicro/arm-none-eabi-gcc/libdriver.a(flash.o)
 .text.FlashUsecGet
                0x0001df1c        0xc ../common/drivers/LuminaryMicro/arm-none-eabi-gcc/libdriver.a(flash.o)
                0x0001df1c                FlashUsecGet
 .text.FlashUsecSet
                0x0001df28        0xc ../common/drivers/LuminaryMicro/arm-none-eabi-gcc/libdriver.a(flash.o)
                0x0001df28                FlashUsecSet
 .text.FlashErase
                0x0001df34       0x3c ../common/drivers/LuminaryMicro/arm-none-eabi-gcc/libdriver.a(flash.o)
                0x0001df34                FlashErase
 .text.FlashProgram
                0x0001df70       0x58 ../common/drivers/LuminaryMicro/arm-none-eabi-gcc/libdriver.a(flash.o)
                0x0001df70                FlashProgram
 .text.FlashProtectGet
                0x0001dfc8       0xb0 ../common/drivers/LuminaryMicro/arm-none-eabi-gcc/libdriver.a(flash.o)
                0x0001dfc8                FlashProtectGet
 .text.FlashProtectSet
                0x0001e078      0x120 ../common/drivers/LuminaryMicro/arm-none-eabi-gcc/libdriver.a(flash.o)
                0x0001e078                FlashProtectSet
 .text.FlashProtectSave
                0x0001e198       0x58 ../common/drivers/LuminaryMicro/arm-none-eabi-gcc/libdriver.a(flash.o)
                0x0001e198                FlashProtectSave
 .text.FlashUserGet
                0x0001e1f0       0x3c ../common/drivers/LuminaryMicro/arm-none-eabi-gcc/libdriver.a(flash.o)
                0x0001e1f0                FlashUserGet
 .text.FlashUserSet
                0x0001e22c       0x3c ../common/drivers/LuminaryMicro/arm-none-eabi-gcc/libdriver.a(flash.o)
                0x0001e22c                FlashUserSet
 .text.FlashUserSave
                0x0001e268       0x64 ../common/drivers/LuminaryMicro/arm-none-eabi-gcc/libdriver.a(flash.o)
                0x0001e268                FlashUserSave
 .text.FlashIntEnable
                0x0001e2cc       0x10 ../common/drivers/LuminaryMicro/arm-none-eabi-gcc/libdriver.a(flash.o)
                0x0001e2cc                FlashIntEnable
 .text.FlashIntDisable
                0x0001e2dc       0x10 ../common/drivers/LuminaryMicro/arm-none-eabi-gcc/libdriver.a(flash.o)
                0x0001e2dc                FlashIntDisable
 .text.FlashIntGetStatus
                0x0001e2ec       0x18 ../common/drivers/LuminaryMicro/arm-none-eabi-gcc/libdriver.a(flash.o)
                0x0001e2ec                FlashIntGetStatus
 .text.FlashIntClear
                0x0001e304        0xc ../common/drivers/LuminaryMicro/arm-none-eabi-gcc/libdriver.a(flash.o)
                0x0001e304                FlashIntClear
 .text.FlashIntUnregister
                0x0001e310       0x10 ../common/drivers/LuminaryMicro/arm-none-eabi-gcc/libdriver.a(flash.o)
                0x0001e310                FlashIntUnregister
 .text.FlashIntRegister
                0x0001e320       0x14 ../common/drivers/LuminaryMicro/arm-none-eabi-gcc/libdriver.a(flash.o)
                0x0001e320                FlashIntRegister
 .text          0x0001e334        0x0 ../common/drivers/LuminaryMicro/arm-none-eabi-gcc/libdriver.a(gpio.o)
 .text.GPIOGetIntNumber
                0x0001e334       0xa4 ../common/drivers/LuminaryMicro/arm-none-eabi-gcc/libdriver.a(gpio.o)
 .text.GPIODirModeSet
                0x0001e3d8       0x44 ../common/drivers/LuminaryMicro/arm-none-eabi-gcc/libdriver.a(gpio.o)
                0x0001e3d8                GPIODirModeSet
 .text.GPIODirModeGet
                0x0001e41c       0x20 ../common/drivers/LuminaryMicro/arm-none-eabi-gcc/libdriver.a(gpio.o)
                0x0001e41c                GPIODirModeGet
 .text.GPIOIntTypeSet
                0x0001e43c       0x70 ../common/drivers/LuminaryMicro/arm-none-eabi-gcc/libdriver.a(gpio.o)
                0x0001e43c                GPIOIntTypeSet
 .text.GPIOIntTypeGet
                0x0001e4ac       0x30 ../common/drivers/LuminaryMicro/arm-none-eabi-gcc/libdriver.a(gpio.o)
                0x0001e4ac                GPIOIntTypeGet
 .text.GPIOPadConfigSet
                0x0001e4dc      0x130 ../common/drivers/LuminaryMicro/arm-none-eabi-gcc/libdriver.a(gpio.o)
                0x0001e4dc                GPIOPadConfigSet
 .text.GPIOPadConfigGet
                0x0001e60c       0x78 ../common/drivers/LuminaryMicro/arm-none-eabi-gcc/libdriver.a(gpio.o)
                0x0001e60c                GPIOPadConfigGet
 .text.GPIOPinIntEnable
                0x0001e684        0xc ../common/drivers/LuminaryMicro/arm-none-eabi-gcc/libdriver.a(gpio.o)
                0x0001e684                GPIOPinIntEnable
 .text.GPIOPinIntDisable
                0x0001e690       0x10 ../common/drivers/LuminaryMicro/arm-none-eabi-gcc/libdriver.a(gpio.o)
                0x0001e690                GPIOPinIntDisable
 .text.GPIOPinIntStatus
                0x0001e6a0       0x10 ../common/drivers/LuminaryMicro/arm-none-eabi-gcc/libdriver.a(gpio.o)
                0x0001e6a0                GPIOPinIntStatus
 .text.GPIOPinIntClear
                0x0001e6b0        0x8 ../common/drivers/LuminaryMicro/arm-none-eabi-gcc/libdriver.a(gpio.o)
                0x0001e6b0                GPIOPinIntClear
 .text.GPIOPinRead
                0x0001e6b8        0x8 ../common/drivers/LuminaryMicro/arm-none-eabi-gcc/libdriver.a(gpio.o)
                0x0001e6b8                GPIOPinRead
 .text.GPIOPinWrite
                0x0001e6c0        0x8 ../common/drivers/LuminaryMicro/arm-none-eabi-gcc/libdriver.a(gpio.o)
                0x0001e6c0                GPIOPinWrite
 .text.GPIOPinTypeADC
                0x0001e6c8       0x1c ../common/drivers/LuminaryMicro/arm-none-eabi-gcc/libdriver.a(gpio.o)
                0x0001e6c8                GPIOPinTypeADC
 .text.GPIOPinTypeCAN
                0x0001e6e4       0x1c ../common/drivers/LuminaryMicro/arm-none-eabi-gcc/libdriver.a(gpio.o)
                0x0001e6e4                GPIOPinTypeCAN
 .text.GPIOPinTypeComparator
                0x0001e700       0x1c ../common/drivers/LuminaryMicro/arm-none-eabi-gcc/libdriver.a(gpio.o)
                0x0001e700                GPIOPinTypeComparator
 .text.GPIOPinTypeGPIOInput
                0x0001e71c       0x1c ../common/drivers/LuminaryMicro/arm-none-eabi-gcc/libdriver.a(gpio.o)
                0x0001e71c                GPIOPinTypeGPIOInput
 .text.GPIOPinTypeGPIOOutput
                0x0001e738       0x1c ../common/drivers/LuminaryMicro/arm-none-eabi-gcc/libdriver.a(gpio.o)
                0x0001e738                GPIOPinTypeGPIOOutput
 .text.GPIOPinTypeGPIOOutputOD
                0x0001e754       0x1c ../common/drivers/LuminaryMicro/arm-none-eabi-gcc/libdriver.a(gpio.o)
                0x0001e754                GPIOPinTypeGPIOOutputOD
 .text.GPIOPinTypeI2C
                0x0001e770       0x1c ../common/drivers/LuminaryMicro/arm-none-eabi-gcc/libdriver.a(gpio.o)
                0x0001e770                GPIOPinTypeI2C
 .text.GPIOPinTypePWM
                0x0001e78c       0x1c ../common/drivers/LuminaryMicro/arm-none-eabi-gcc/libdriver.a(gpio.o)
                0x0001e78c                GPIOPinTypePWM
 .text.GPIOPinTypeQEI
                0x0001e7a8       0x1c ../common/drivers/LuminaryMicro/arm-none-eabi-gcc/libdriver.a(gpio.o)
                0x0001e7a8                GPIOPinTypeQEI
 .text.GPIOPinTypeSSI
                0x0001e7c4       0x1c ../common/drivers/LuminaryMicro/arm-none-eabi-gcc/libdriver.a(gpio.o)
                0x0001e7c4                GPIOPinTypeSSI
 .text.GPIOPinTypeTimer
                0x0001e7e0       0x1c ../common/drivers/LuminaryMicro/arm-none-eabi-gcc/libdriver.a(gpio.o)
                0x0001e7e0                GPIOPinTypeTimer
 .text.GPIOPinTypeUART
                0x0001e7fc       0x1c ../common/drivers/LuminaryMicro/arm-none-eabi-gcc/libdriver.a(gpio.o)
                0x0001e7fc                GPIOPinTypeUART
 .text.GPIOPinTypeUSBDigital
                0x0001e818       0x1c ../common/drivers/LuminaryMicro/arm-none-eabi-gcc/libdriver.a(gpio.o)
                0x0001e818                GPIOPinTypeUSBDigital
 .text.GPIOPortIntUnregister
                0x0001e834       0x14 ../common/drivers/LuminaryMicro/arm-none-eabi-gcc/libdriver.a(gpio.o)
                0x0001e834                GPIOPortIntUnregister
 .text.GPIOPortIntRegister
                0x0001e848       0x18 ../common/drivers/LuminaryMicro/arm-none-eabi-gcc/libdriver.a(gpio.o)
                0x0001e848                GPIOPortIntRegister
 .text          0x0001e860        0x0 ../common/drivers/LuminaryMicro/arm-none-eabi-gcc/libdriver.a(interrupt.o)
 .text.IntDefaultHandler
                0x0001e860        0x4 ../common/drivers/LuminaryMicro/arm-none-eabi-gcc/libdriver.a(interrupt.o)
 .text.IntRegister
                0x0001e864       0x3c ../common/drivers/LuminaryMicro/arm-none-eabi-gcc/libdriver.a(interrupt.o)
                0x0001e864                IntRegister
 .text.IntUnregister
                0x0001e8a0       0x14 ../common/drivers/LuminaryMicro/arm-none-eabi-gcc/libdriver.a(interrupt.o)
                0x0001e8a0                IntUnregister
 .text.IntPriorityGroupingSet
                0x0001e8b4       0x1c ../common/drivers/LuminaryMicro/arm-none-eabi-gcc/libdriver.a(interrupt.o)
                0x0001e8b4                IntPriorityGroupingSet
 .text.IntPriorityGroupingGet
                0x0001e8d0       0x24 ../common/drivers/LuminaryMicro/arm-none-eabi-gcc/libdriver.a(interrupt.o)
                0x0001e8d0                IntPriorityGroupingGet
 .text.IntPrioritySet
                0x0001e8f4       0x28 ../common/drivers/LuminaryMicro/arm-none-eabi-gcc/libdriver.a(interrupt.o)
                0x0001e8f4                IntPrioritySet
 .text.IntPriorityGet
                0x0001e91c       0x20 ../common/drivers/LuminaryMicro/arm-none-eabi-gcc/libdriver.a(interrupt.o)
                0x0001e91c                IntPriorityGet
 .text.IntEnable
                0x0001e93c       0x74 ../common/drivers/LuminaryMicro/arm-none-eabi-gcc/libdriver.a(interrupt.o)
                0x0001e93c                IntEnable
 .text.IntDisable
                0x0001e9b0       0x74 ../common/drivers/LuminaryMicro/arm-none-eabi-gcc/libdriver.a(interrupt.o)
                0x0001e9b0                IntDisable
 .text.IntMasterDisable
                0x0001ea24        0xc ../common/drivers/LuminaryMicro/arm-none-eabi-gcc/libdriver.a(interrupt.o)
                0x0001ea24                IntMasterDisable
 .text.IntMasterEnable
                0x0001ea30        0xc ../common/drivers/LuminaryMicro/arm-none-eabi-gcc/libdriver.a(interrupt.o)
                0x0001ea30                IntMasterEnable
 .text          0x0001ea3c        0x0 ../common/drivers/LuminaryMicro/arm-none-eabi-gcc/libdriver.a(ssi.o)
 .text.SSIConfigSetExpClk
                0x0001ea3c       0x48 ../common/drivers/LuminaryMicro/arm-none-eabi-gcc/libdriver.a(ssi.o)
                0x0001ea3c                SSIConfigSetExpClk
 .text.SSIEnable
                0x0001ea84        0xc ../common/drivers/LuminaryMicro/arm-none-eabi-gcc/libdriver.a(ssi.o)
                0x0001ea84                SSIEnable
 .text.SSIDisable
                0x0001ea90        0xc ../common/drivers/LuminaryMicro/arm-none-eabi-gcc/libdriver.a(ssi.o)
                0x0001ea90                SSIDisable
 .text.SSIIntEnable
                0x0001ea9c        0x8 ../common/drivers/LuminaryMicro/arm-none-eabi-gcc/libdriver.a(ssi.o)
                0x0001ea9c                SSIIntEnable
 .text.SSIIntDisable
                0x0001eaa4        0xc ../common/drivers/LuminaryMicro/arm-none-eabi-gcc/libdriver.a(ssi.o)
                0x0001eaa4                SSIIntDisable
 .text.SSIIntStatus
                0x0001eab0        0xc ../common/drivers/LuminaryMicro/arm-none-eabi-gcc/libdriver.a(ssi.o)
                0x0001eab0                SSIIntStatus
 .text.SSIIntClear
                0x0001eabc        0x4 ../common/drivers/LuminaryMicro/arm-none-eabi-gcc/libdriver.a(ssi.o)
                0x0001eabc                SSIIntClear
 .text.SSIDataPut
                0x0001eac0       0x10 ../common/drivers/LuminaryMicro/arm-none-eabi-gcc/libdriver.a(ssi.o)
                0x0001eac0                SSIDataPut
 .text.SSIDataPutNonBlocking
                0x0001ead0       0x10 ../common/drivers/LuminaryMicro/arm-none-eabi-gcc/libdriver.a(ssi.o)
                0x0001ead0                SSIDataPutNonBlocking
 .text.SSIDataGet
                0x0001eae0       0x14 ../common/drivers/LuminaryMicro/arm-none-eabi-gcc/libdriver.a(ssi.o)
                0x0001eae0                SSIDataGet
 .text.SSIDataGetNonBlocking
                0x0001eaf4       0x14 ../common/drivers/LuminaryMicro/arm-none-eabi-gcc/libdriver.a(ssi.o)
                0x0001eaf4                SSIDataGetNonBlocking
 .text.SSIDMAEnable
                0x0001eb08        0x8 ../common/drivers/LuminaryMicro/arm-none-eabi-gcc/libdriver.a(ssi.o)
                0x0001eb08                SSIDMAEnable
 .text.SSIDMADisable
                0x0001eb10        0xc ../common/drivers/LuminaryMicro/arm-none-eabi-gcc/libdriver.a(ssi.o)
                0x0001eb10                SSIDMADisable
 .text.SSIIntUnregister
                0x0001eb1c       0x20 ../common/drivers/LuminaryMicro/arm-none-eabi-gcc/libdriver.a(ssi.o)
                0x0001eb1c                SSIIntUnregister
 .text.SSIIntRegister
                0x0001eb3c       0x20 ../common/drivers/LuminaryMicro/arm-none-eabi-gcc/libdriver.a(ssi.o)
                0x0001eb3c                SSIIntRegister
 .text          0x0001eb5c        0x0 ../common/drivers/LuminaryMicro/arm-none-eabi-gcc/libdriver.a(sysctl.o)
 .text.SysCtlSRAMSizeGet
                0x0001eb5c       0x14 ../common/drivers/LuminaryMicro/arm-none-eabi-gcc/libdriver.a(sysctl.o)
                0x0001eb5c                SysCtlSRAMSizeGet
 .text.SysCtlFlashSizeGet
                0x0001eb70       0x14 ../common/drivers/LuminaryMicro/arm-none-eabi-gcc/libdriver.a(sysctl.o)
                0x0001eb70                SysCtlFlashSizeGet
 .text.SysCtlPinPresent
                0x0001eb84       0x14 ../common/drivers/LuminaryMicro/arm-none-eabi-gcc/libdriver.a(sysctl.o)
                0x0001eb84                SysCtlPinPresent
 .text.SysCtlPeripheralPresent
                0x0001eb98       0x28 ../common/drivers/LuminaryMicro/arm-none-eabi-gcc/libdriver.a(sysctl.o)
                0x0001eb98                SysCtlPeripheralPresent
 .text.SysCtlPeripheralReset
                0x0001ebc0       0x44 ../common/drivers/LuminaryMicro/arm-none-eabi-gcc/libdriver.a(sysctl.o)
                0x0001ebc0                SysCtlPeripheralReset
 .text.SysCtlPeripheralEnable
                0x0001ec04       0x24 ../common/drivers/LuminaryMicro/arm-none-eabi-gcc/libdriver.a(sysctl.o)
                0x0001ec04                SysCtlPeripheralEnable
 .text.SysCtlPeripheralDisable
                0x0001ec28       0x24 ../common/drivers/LuminaryMicro/arm-none-eabi-gcc/libdriver.a(sysctl.o)
                0x0001ec28                SysCtlPeripheralDisable
 .text.SysCtlPeripheralSleepEnable
                0x0001ec4c       0x24 ../common/drivers/LuminaryMicro/arm-none-eabi-gcc/libdriver.a(sysctl.o)
                0x0001ec4c                SysCtlPeripheralSleepEnable
 .text.SysCtlPeripheralSleepDisable
                0x0001ec70       0x24 ../common/drivers/LuminaryMicro/arm-none-eabi-gcc/libdriver.a(sysctl.o)
                0x0001ec70                SysCtlPeripheralSleepDisable
 .text.SysCtlPeripheralDeepSleepEnable
                0x0001ec94       0x24 ../common/drivers/LuminaryMicro/arm-none-eabi-gcc/libdriver.a(sysctl.o)
                0x0001ec94                SysCtlPeripheralDeepSleepEnable
 .text.SysCtlPeripheralDeepSleepDisable
                0x0001ecb8       0x24 ../common/drivers/LuminaryMicro/arm-none-eabi-gcc/libdriver.a(sysctl.o)
                0x0001ecb8                SysCtlPeripheralDeepSleepDisable
 .text.SysCtlPeripheralClockGating
                0x0001ecdc       0x20 ../common/drivers/LuminaryMicro/arm-none-eabi-gcc/libdriver.a(sysctl.o)
                0x0001ecdc                SysCtlPeripheralClockGating
 .text.SysCtlIntEnable
                0x0001ecfc       0x10 ../common/drivers/LuminaryMicro/arm-none-eabi-gcc/libdriver.a(sysctl.o)
                0x0001ecfc                SysCtlIntEnable
 .text.SysCtlIntDisable
                0x0001ed0c       0x10 ../common/drivers/LuminaryMicro/arm-none-eabi-gcc/libdriver.a(sysctl.o)
                0x0001ed0c                SysCtlIntDisable
 .text.SysCtlIntClear
                0x0001ed1c        0xc ../common/drivers/LuminaryMicro/arm-none-eabi-gcc/libdriver.a(sysctl.o)
                0x0001ed1c                SysCtlIntClear
 .text.SysCtlIntStatus
                0x0001ed28       0x18 ../common/drivers/LuminaryMicro/arm-none-eabi-gcc/libdriver.a(sysctl.o)
                0x0001ed28                SysCtlIntStatus
 .text.SysCtlLDOSet
                0x0001ed40        0xc ../common/drivers/LuminaryMicro/arm-none-eabi-gcc/libdriver.a(sysctl.o)
                0x0001ed40                SysCtlLDOSet
 .text.SysCtlLDOGet
                0x0001ed4c        0xc ../common/drivers/LuminaryMicro/arm-none-eabi-gcc/libdriver.a(sysctl.o)
                0x0001ed4c                SysCtlLDOGet
 .text.SysCtlLDOConfigSet
                0x0001ed58        0xc ../common/drivers/LuminaryMicro/arm-none-eabi-gcc/libdriver.a(sysctl.o)
                0x0001ed58                SysCtlLDOConfigSet
 .text.SysCtlReset
                0x0001ed64       0x10 ../common/drivers/LuminaryMicro/arm-none-eabi-gcc/libdriver.a(sysctl.o)
                0x0001ed64                SysCtlReset
 .text.SysCtlResetCauseGet
                0x0001ed74        0xc ../common/drivers/LuminaryMicro/arm-none-eabi-gcc/libdriver.a(sysctl.o)
                0x0001ed74                SysCtlResetCauseGet
 .text.SysCtlResetCauseClear
                0x0001ed80       0x10 ../common/drivers/LuminaryMicro/arm-none-eabi-gcc/libdriver.a(sysctl.o)
                0x0001ed80                SysCtlResetCauseClear
 .text.SysCtlBrownOutConfigSet
                0x0001ed90       0x10 ../common/drivers/LuminaryMicro/arm-none-eabi-gcc/libdriver.a(sysctl.o)
                0x0001ed90                SysCtlBrownOutConfigSet
 .text.SysCtlDelay
                0x0001eda0        0x8 ../common/drivers/LuminaryMicro/arm-none-eabi-gcc/libdriver.a(sysctl.o)
                0x0001eda0                SysCtlDelay
 .text.SysCtlClockSet
                0x0001eda8      0x168 ../common/drivers/LuminaryMicro/arm-none-eabi-gcc/libdriver.a(sysctl.o)
                0x0001eda8                SysCtlClockSet
 .text.SysCtlClockGet
                0x0001ef10      0x150 ../common/drivers/LuminaryMicro/arm-none-eabi-gcc/libdriver.a(sysctl.o)
                0x0001ef10                SysCtlClockGet
 .text.SysCtlPWMClockSet
                0x0001f060       0x14 ../common/drivers/LuminaryMicro/arm-none-eabi-gcc/libdriver.a(sysctl.o)
                0x0001f060                SysCtlPWMClockSet
 .text.SysCtlPWMClockGet
                0x0001f074       0x18 ../common/drivers/LuminaryMicro/arm-none-eabi-gcc/libdriver.a(sysctl.o)
                0x0001f074                SysCtlPWMClockGet
 .text.SysCtlADCSpeedSet
                0x0001f08c       0x34 ../common/drivers/LuminaryMicro/arm-none-eabi-gcc/libdriver.a(sysctl.o)
                0x0001f08c                SysCtlADCSpeedSet
 .text.SysCtlADCSpeedGet
                0x0001f0c0       0x10 ../common/drivers/LuminaryMicro/arm-none-eabi-gcc/libdriver.a(sysctl.o)
                0x0001f0c0                SysCtlADCSpeedGet
 .text.SysCtlIOSCVerificationSet
                0x0001f0d0       0x20 ../common/drivers/LuminaryMicro/arm-none-eabi-gcc/libdriver.a(sysctl.o)
                0x0001f0d0                SysCtlIOSCVerificationSet
 .text.SysCtlMOSCVerificationSet
                0x0001f0f0       0x20 ../common/drivers/LuminaryMicro/arm-none-eabi-gcc/libdriver.a(sysctl.o)
                0x0001f0f0                SysCtlMOSCVerificationSet
 .text.SysCtlPLLVerificationSet
                0x0001f110       0x20 ../common/drivers/LuminaryMicro/arm-none-eabi-gcc/libdriver.a(sysctl.o)
                0x0001f110                SysCtlPLLVerificationSet
 .text.SysCtlClkVerificationClear
                0x0001f130       0x10 ../common/drivers/LuminaryMicro/arm-none-eabi-gcc/libdriver.a(sysctl.o)
                0x0001f130                SysCtlClkVerificationClear
 .text.SysCtlGPIOAHBEnable
                0x0001f140       0x10 ../common/drivers/LuminaryMicro/arm-none-eabi-gcc/libdriver.a(sysctl.o)
                0x0001f140                SysCtlGPIOAHBEnable
 .text.SysCtlGPIOAHBDisable
                0x0001f150       0x14 ../common/drivers/LuminaryMicro/arm-none-eabi-gcc/libdriver.a(sysctl.o)
                0x0001f150                SysCtlGPIOAHBDisable
 .text.SysCtlUSBPLLEnable
                0x0001f164       0x10 ../common/drivers/LuminaryMicro/arm-none-eabi-gcc/libdriver.a(sysctl.o)
                0x0001f164                SysCtlUSBPLLEnable
 .text.SysCtlUSBPLLDisable
                0x0001f174       0x10 ../common/drivers/LuminaryMicro/arm-none-eabi-gcc/libdriver.a(sysctl.o)
                0x0001f174                SysCtlUSBPLLDisable
 .text.SysCtlDeepSleep
                0x0001f184       0x20 ../common/drivers/LuminaryMicro/arm-none-eabi-gcc/libdriver.a(sysctl.o)
                0x0001f184                SysCtlDeepSleep
 .text.SysCtlSleep
                0x0001f1a4        0x8 ../common/drivers/LuminaryMicro/arm-none-eabi-gcc/libdriver.a(sysctl.o)
                0x0001f1a4                SysCtlSleep
 .text.SysCtlIntUnregister
                0x0001f1ac       0x10 ../common/drivers/LuminaryMicro/arm-none-eabi-gcc/libdriver.a(sysctl.o)
                0x0001f1ac                SysCtlIntUnregister
 .text.SysCtlIntRegister
                0x0001f1bc       0x14 ../common/drivers/LuminaryMicro/arm-none-eabi-gcc/libdriver.a(sysctl.o)
                0x0001f1bc                SysCtlIntRegister
 .text          0x0001f1d0        0x0 ../common/drivers/LuminaryMicro/arm-none-eabi-gcc/libdriver.a(timer.o)
 .text.TimerEnable
                0x0001f1d0       0x10 ../common/drivers/LuminaryMicro/arm-none-eabi-gcc/libdriver.a(timer.o)
                0x0001f1d0                TimerEnable
 .text.TimerDisable
                0x0001f1e0       0x14 ../common/drivers/LuminaryMicro/arm-none-eabi-gcc/libdriver.a(timer.o)
                0x0001f1e0                TimerDisable
 .text.TimerConfigure
                0x0001f1f4       0x20 ../common/drivers/LuminaryMicro/arm-none-eabi-gcc/libdriver.a(timer.o)
                0x0001f1f4                TimerConfigure
 .text.TimerControlLevel
                0x0001f214       0x28 ../common/drivers/LuminaryMicro/arm-none-eabi-gcc/libdriver.a(timer.o)
                0x0001f214                TimerControlLevel
 .text.TimerControlTrigger
                0x0001f23c       0x28 ../common/drivers/LuminaryMicro/arm-none-eabi-gcc/libdriver.a(timer.o)
                0x0001f23c                TimerControlTrigger
 .text.TimerControlEvent
                0x0001f264       0x20 ../common/drivers/LuminaryMicro/arm-none-eabi-gcc/libdriver.a(timer.o)
                0x0001f264                TimerControlEvent
 .text.TimerControlStall
                0x0001f284       0x28 ../common/drivers/LuminaryMicro/arm-none-eabi-gcc/libdriver.a(timer.o)
                0x0001f284                TimerControlStall
 .text.TimerRTCEnable
                0x0001f2ac        0xc ../common/drivers/LuminaryMicro/arm-none-eabi-gcc/libdriver.a(timer.o)
                0x0001f2ac                TimerRTCEnable
 .text.TimerRTCDisable
                0x0001f2b8        0xc ../common/drivers/LuminaryMicro/arm-none-eabi-gcc/libdriver.a(timer.o)
                0x0001f2b8                TimerRTCDisable
 .text.TimerPrescaleSet
                0x0001f2c4       0x14 ../common/drivers/LuminaryMicro/arm-none-eabi-gcc/libdriver.a(timer.o)
                0x0001f2c4                TimerPrescaleSet
 .text.TimerPrescaleGet
                0x0001f2d8        0xc ../common/drivers/LuminaryMicro/arm-none-eabi-gcc/libdriver.a(timer.o)
                0x0001f2d8                TimerPrescaleGet
 .text.TimerLoadSet
                0x0001f2e4       0x14 ../common/drivers/LuminaryMicro/arm-none-eabi-gcc/libdriver.a(timer.o)
                0x0001f2e4                TimerLoadSet
 .text.TimerLoadGet
                0x0001f2f8        0xc ../common/drivers/LuminaryMicro/arm-none-eabi-gcc/libdriver.a(timer.o)
                0x0001f2f8                TimerLoadGet
 .text.TimerValueGet
                0x0001f304        0xc ../common/drivers/LuminaryMicro/arm-none-eabi-gcc/libdriver.a(timer.o)
                0x0001f304                TimerValueGet
 .text.TimerMatchSet
                0x0001f310       0x14 ../common/drivers/LuminaryMicro/arm-none-eabi-gcc/libdriver.a(timer.o)
                0x0001f310                TimerMatchSet
 .text.TimerMatchGet
                0x0001f324        0xc ../common/drivers/LuminaryMicro/arm-none-eabi-gcc/libdriver.a(timer.o)
                0x0001f324                TimerMatchGet
 .text.TimerIntEnable
                0x0001f330        0x8 ../common/drivers/LuminaryMicro/arm-none-eabi-gcc/libdriver.a(timer.o)
                0x0001f330                TimerIntEnable
 .text.TimerIntDisable
                0x0001f338        0xc ../common/drivers/LuminaryMicro/arm-none-eabi-gcc/libdriver.a(timer.o)
                0x0001f338                TimerIntDisable
 .text.TimerIntStatus
                0x0001f344        0xc ../common/drivers/LuminaryMicro/arm-none-eabi-gcc/libdriver.a(timer.o)
                0x0001f344                TimerIntStatus
 .text.TimerIntClear
                0x0001f350        0x4 ../common/drivers/LuminaryMicro/arm-none-eabi-gcc/libdriver.a(timer.o)
                0x0001f350                TimerIntClear
 .text.TimerIntUnregister
                0x0001f354       0x58 ../common/drivers/LuminaryMicro/arm-none-eabi-gcc/libdriver.a(timer.o)
                0x0001f354                TimerIntUnregister
 .text.TimerQuiesce
                0x0001f3ac       0x44 ../common/drivers/LuminaryMicro/arm-none-eabi-gcc/libdriver.a(timer.o)
                0x0001f3ac                TimerQuiesce
 .text.TimerIntRegister
                0x0001f3f0       0x60 ../common/drivers/LuminaryMicro/arm-none-eabi-gcc/libdriver.a(timer.o)
                0x0001f3f0                TimerIntRegister
 .text          0x0001f450       0x14 ../common/drivers/LuminaryMicro/arm-none-eabi-gcc/libdriver.a(cpu.o)
                0x0001f450                CPUcpsid
                0x0001f460                CPUwfi
                0x0001f458                CPUcpsie
 .text          0x0001f464        0xc /home/anzinger/openocd/arm-2009q1/bin/../lib/gcc/arm-none-eabi/4.3.3/../../../../arm-none-eabi/lib/thumb2/libc.a(lib_a-ctime.o)
                0x0001f464                ctime
 .text          0x0001f470       0x28 /home/anzinger/openocd/arm-2009q1/bin/../lib/gcc/arm-none-eabi/4.3.3/../../../../arm-none-eabi/lib/thumb2/libc.a(lib_a-lcltime.o)
                0x0001f470                localtime
 .text          0x0001f498        0xc /home/anzinger/openocd/arm-2009q1/bin/../lib/gcc/arm-none-eabi/4.3.3/../../../../arm-none-eabi/lib/thumb2/libc.a(lib_a-lcltime_r.o)
                0x0001f498                localtime_r
 .text          0x0001f4a4       0x28 /home/anzinger/openocd/arm-2009q1/bin/../lib/gcc/arm-none-eabi/4.3.3/../../../../arm-none-eabi/lib/thumb2/libc.a(lib_a-malloc.o)
                0x0001f4b8                malloc
                0x0001f4a4                free
 .text          0x0001f4cc      0x530 /home/anzinger/openocd/arm-2009q1/bin/../lib/gcc/arm-none-eabi/4.3.3/../../../../arm-none-eabi/lib/thumb2/libc.a(lib_a-mallocr.o)
                0x0001f4cc                _malloc_r
 .text          0x0001f9fc       0x60 /home/anzinger/openocd/arm-2009q1/bin/../lib/gcc/arm-none-eabi/4.3.3/../../../../arm-none-eabi/lib/thumb2/libc.a(lib_a-memcmp.o)
                0x0001f9fc                memcmp
 .text          0x0001fa5c      0x12c /home/anzinger/openocd/arm-2009q1/bin/../lib/gcc/arm-none-eabi/4.3.3/../../../../arm-none-eabi/lib/thumb2/libc.a(lib_a-memcpy.o)
                0x0001fa5c                memcpy
 .text          0x0001fb88       0xb0 /home/anzinger/openocd/arm-2009q1/bin/../lib/gcc/arm-none-eabi/4.3.3/../../../../arm-none-eabi/lib/thumb2/libc.a(lib_a-memset.o)
                0x0001fb88                memset
 .text          0x0001fc38      0x5a8 /home/anzinger/openocd/arm-2009q1/bin/../lib/gcc/arm-none-eabi/4.3.3/../../../../arm-none-eabi/lib/thumb2/libc.a(lib_a-mktm_r.o)
                0x0001fc38                __tzcalc_limits
                0x0001fddc                _mktm_r
 .text          0x000201e0        0x8 /home/anzinger/openocd/arm-2009q1/bin/../lib/gcc/arm-none-eabi/4.3.3/../../../../arm-none-eabi/lib/thumb2/libc.a(lib_a-mlock.o)
                0x000201e4                __malloc_unlock
                0x000201e0                __malloc_lock
 .text          0x000201e8       0x28 /home/anzinger/openocd/arm-2009q1/bin/../lib/gcc/arm-none-eabi/4.3.3/../../../../arm-none-eabi/lib/thumb2/libc.a(lib_a-sbrkr.o)
                0x000201e8                _sbrk_r
 .text          0x00020210       0x48 /home/anzinger/openocd/arm-2009q1/bin/../lib/gcc/arm-none-eabi/4.3.3/../../../../arm-none-eabi/lib/thumb2/libc.a(lib_a-strcat.o)
                0x00020210                strcat
 .text          0x00020258       0xa8 /home/anzinger/openocd/arm-2009q1/bin/../lib/gcc/arm-none-eabi/4.3.3/../../../../arm-none-eabi/lib/thumb2/libc.a(lib_a-strchr.o)
                0x00020258                strchr
 .text          0x00020300      0x1dc /home/anzinger/openocd/arm-2009q1/bin/../lib/gcc/arm-none-eabi/4.3.3/../../../../arm-none-eabi/lib/thumb2/libc.a(lib_a-strcmp.o)
                0x00020300                strcmp
 .text          0x000204dc       0xbc /home/anzinger/openocd/arm-2009q1/bin/../lib/gcc/arm-none-eabi/4.3.3/../../../../arm-none-eabi/lib/thumb2/libc.a(lib_a-strcpy.o)
                0x000204dc                strcpy
 .text          0x00020598       0x60 /home/anzinger/openocd/arm-2009q1/bin/../lib/gcc/arm-none-eabi/4.3.3/../../../../arm-none-eabi/lib/thumb2/libc.a(lib_a-strlen.o)
                0x00020598                strlen
 .text          0x000205f8       0x88 /home/anzinger/openocd/arm-2009q1/bin/../lib/gcc/arm-none-eabi/4.3.3/../../../../arm-none-eabi/lib/thumb2/libc.a(lib_a-strncmp.o)
                0x000205f8                strncmp
 .text          0x00020680       0x80 /home/anzinger/openocd/arm-2009q1/bin/../lib/gcc/arm-none-eabi/4.3.3/../../../../arm-none-eabi/lib/thumb2/libc.a(lib_a-strncpy.o)
                0x00020680                strncpy
 .text          0x00020700      0x570 /home/anzinger/openocd/arm-2009q1/bin/../lib/gcc/arm-none-eabi/4.3.3/../../../../arm-none-eabi/lib/thumb2/libc.a(lib_a-strstr.o)
                0x00020a30                strstr
 .text          0x00020c70        0x8 /home/anzinger/openocd/arm-2009q1/bin/../lib/gcc/arm-none-eabi/4.3.3/../../../../arm-none-eabi/lib/thumb2/libc.a(lib_a-tzlock.o)
                0x00020c74                __tz_unlock
                0x00020c70                __tz_lock
 .text          0x00020c78        0x0 /home/anzinger/openocd/arm-2009q1/bin/../lib/gcc/arm-none-eabi/4.3.3/../../../../arm-none-eabi/lib/thumb2/libc.a(lib_a-tzvars.o)
 .text          0x00020c78       0x38 /home/anzinger/openocd/arm-2009q1/bin/../lib/gcc/arm-none-eabi/4.3.3/../../../../arm-none-eabi/lib/thumb2/libc.a(lib_a-asctime.o)
                0x00020c78                asctime
 .text          0x00020cb0       0x50 /home/anzinger/openocd/arm-2009q1/bin/../lib/gcc/arm-none-eabi/4.3.3/../../../../arm-none-eabi/lib/thumb2/libc.a(lib_a-asctime_r.o)
                0x00020cb0                asctime_r
 .text          0x00020d00      0x238 /home/anzinger/openocd/arm-2009q1/bin/../lib/gcc/arm-none-eabi/4.3.3/../../../../arm-none-eabi/lib/thumb2/libc.a(lib_a-freer.o)
                0x00020dac                _free_r
                0x00020d00                _malloc_trim_r
 .text          0x00020f38        0xc /home/anzinger/openocd/arm-2009q1/bin/../lib/gcc/arm-none-eabi/4.3.3/../../../../arm-none-eabi/lib/thumb2/libc.a(lib_a-gettzinfo.o)
                0x00020f38                __gettzinfo
 .text          0x00020f44        0x0 /home/anzinger/openocd/arm-2009q1/bin/../lib/gcc/arm-none-eabi/4.3.3/../../../../arm-none-eabi/lib/thumb2/libc.a(lib_a-impure.o)
 .text          0x00020f44       0x7c /home/anzinger/openocd/arm-2009q1/bin/../lib/gcc/arm-none-eabi/4.3.3/../../../../arm-none-eabi/lib/thumb2/libc.a(lib_a-memchr.o)
                0x00020f44                memchr
 .text          0x00020fc0      0x108 /home/anzinger/openocd/arm-2009q1/bin/../lib/gcc/arm-none-eabi/4.3.3/../../../../arm-none-eabi/lib/thumb2/libc.a(lib_a-reent.o)
                0x00020ffc                cleanup_glue
                0x00021014                _reclaim_reent
                0x00020fc0                _wrapup_reent
 .text          0x000210c8       0x8c /home/anzinger/openocd/arm-2009q1/bin/../lib/gcc/arm-none-eabi/4.3.3/../../../../arm-none-eabi/lib/thumb2/libc.a(lib_a-sprintf.o)
                0x00021114                _sprintf_r
                0x000210c8                sprintf
 .text          0x00021154     0x1488 /home/anzinger/openocd/arm-2009q1/bin/../lib/gcc/arm-none-eabi/4.3.3/../../../../arm-none-eabi/lib/thumb2/libc.a(lib_a-svfprintf.o)
                0x00021250                _svfprintf_r
 *fill*         0x000225dc        0x4 00
 .text          0x000225e0      0xf88 /home/anzinger/openocd/arm-2009q1/bin/../lib/gcc/arm-none-eabi/4.3.3/../../../../arm-none-eabi/lib/thumb2/libc.a(lib_a-dtoa.o)
                0x00022710                _dtoa_r
 .text          0x00023568       0x74 /home/anzinger/openocd/arm-2009q1/bin/../lib/gcc/arm-none-eabi/4.3.3/../../../../arm-none-eabi/lib/thumb2/libc.a(lib_a-locale.o)
                0x00023584                _setlocale_r
                0x00023568                __locale_charset
                0x00023574                _localeconv_r
                0x000235c4                setlocale
                0x0002357c                localeconv
 .text          0x000235dc       0xc0 /home/anzinger/openocd/arm-2009q1/bin/../lib/gcc/arm-none-eabi/4.3.3/../../../../arm-none-eabi/lib/thumb2/libc.a(lib_a-memmove.o)
                0x000235dc                memmove
 .text          0x0002369c      0x92c /home/anzinger/openocd/arm-2009q1/bin/../lib/gcc/arm-none-eabi/4.3.3/../../../../arm-none-eabi/lib/thumb2/libc.a(lib_a-mprec.o)
                0x000238c8                _mprec_log10
                0x00023954                __any_on
                0x000239e8                _Balloc
                0x00023874                __ratio
                0x00023df0                __i2b
                0x000237c8                __b2d
                0x00023f34                __s2b
                0x00023740                __mcmp
                0x0002369c                __hi0bits
                0x00023e80                __pow5mult
                0x00023c0c                __lshift
                0x00023cc0                __multiply
                0x00023a58                __d2b
                0x00023904                __copybits
                0x00023780                __ulp
                0x00023b10                __mdiff
                0x000236dc                __lo0bits
                0x00023e04                __multadd
                0x000239b8                _Bfree
 .text          0x00023fc8      0x388 /home/anzinger/openocd/arm-2009q1/bin/../lib/gcc/arm-none-eabi/4.3.3/../../../../arm-none-eabi/lib/thumb2/libc.a(lib_a-reallocr.o)
                0x00023fc8                _realloc_r
 .text          0x00024350       0x28 /home/anzinger/openocd/arm-2009q1/bin/../lib/gcc/arm-none-eabi/4.3.3/../../../../arm-none-eabi/lib/thumb2/libc.a(lib_a-s_isinfd.o)
                0x00024350                __isinfd
 .text          0x00024378       0x1c /home/anzinger/openocd/arm-2009q1/bin/../lib/gcc/arm-none-eabi/4.3.3/../../../../arm-none-eabi/lib/thumb2/libc.a(lib_a-s_isnand.o)
                0x00024378                __isnand
 .text          0x00024394       0x5c /home/anzinger/openocd/arm-2009q1/bin/../lib/gcc/arm-none-eabi/4.3.3/../../../../arm-none-eabi/lib/thumb2/libc.a(lib_a-callocr.o)
                0x00024394                _calloc_r
 .text          0x000243f0       0x8c /home/anzinger/openocd/arm-2009q1/bin/../lib/gcc/arm-none-eabi/4.3.3/thumb2/libgcc.a(_udivsi3.o)
                0x000243f0                __udivsi3
                0x000243f0                __aeabi_uidiv
                0x00024468                __aeabi_uidivmod
 .text          0x0002447c        0x4 /home/anzinger/openocd/arm-2009q1/bin/../lib/gcc/arm-none-eabi/4.3.3/thumb2/libgcc.a(_dvmd_tls.o)
                0x0002447c                __aeabi_ldiv0
                0x0002447c                __aeabi_idiv0
 .text          0x00024480      0x370 /home/anzinger/openocd/arm-2009q1/bin/../lib/gcc/arm-none-eabi/4.3.3/thumb2/libgcc.a(_arm_addsubdf3.o)
                0x00024794                __floatdidf
                0x00024724                __floatsidf
                0x00024704                __aeabi_ui2d
                0x00024480                __aeabi_drsub
                0x00024748                __extendsfdf2
                0x0002448c                __adddf3
                0x00024704                __floatunsidf
                0x0002448c                __aeabi_dadd
                0x00024784                __aeabi_ul2d
                0x00024488                __aeabi_dsub
                0x00024784                __floatundidf
                0x00024724                __aeabi_i2d
                0x00024794                __aeabi_l2d
                0x00024748                __aeabi_f2d
                0x00024488                __subdf3
 .text          0x000247f0      0x424 /home/anzinger/openocd/arm-2009q1/bin/../lib/gcc/arm-none-eabi/4.3.3/thumb2/libgcc.a(_arm_muldivdf3.o)
                0x00024a44                __aeabi_ddiv
                0x000247f0                __aeabi_dmul
                0x00024a44                __divdf3
                0x000247f0                __muldf3
 .text          0x00024c14      0x110 /home/anzinger/openocd/arm-2009q1/bin/../lib/gcc/arm-none-eabi/4.3.3/thumb2/libgcc.a(_arm_cmpdf2.o)
                0x00024ce8                __aeabi_dcmple
                0x00024c24                __cmpdf2
                0x00024c24                __eqdf2
                0x00024c14                __gtdf2
                0x00024cb0                __aeabi_cdcmple
                0x00024ca0                __aeabi_cdrcmple
                0x00024c1c                __ltdf2
                0x00024cd4                __aeabi_dcmplt
                0x00024c1c                __ledf2
                0x00024d10                __aeabi_dcmpgt
                0x00024cfc                __aeabi_dcmpge
                0x00024c24                __nedf2
                0x00024cc0                __aeabi_dcmpeq
                0x00024cb0                __aeabi_cdcmpeq
                0x00024c14                __gedf2
 .text          0x00024d24       0x50 /home/anzinger/openocd/arm-2009q1/bin/../lib/gcc/arm-none-eabi/4.3.3/thumb2/libgcc.a(_arm_fixdfsi.o)
                0x00024d24                __fixdfsi
                0x00024d24                __aeabi_d2iz
 .text          0x00024d74       0x2c /home/anzinger/openocd/arm-2009q1/bin/../lib/gcc/arm-none-eabi/4.3.3/thumb2/libgcc.a(_aeabi_uldivmod.o)
                0x00024d74                __aeabi_uldivmod
 .text          0x00024da0       0x60 /home/anzinger/openocd/arm-2009q1/bin/../lib/gcc/arm-none-eabi/4.3.3/thumb2/libgcc.a(bpabi.o)
                0x00024da0                __gnu_uldivmod_helper
                0x00024dd0                __gnu_ldivmod_helper
 .text          0x00024e00      0x40c /home/anzinger/openocd/arm-2009q1/bin/../lib/gcc/arm-none-eabi/4.3.3/thumb2/libgcc.a(_divdi3.o)
                0x00024e00                __divdi3
 .text          0x0002520c      0x3cc /home/anzinger/openocd/arm-2009q1/bin/../lib/gcc/arm-none-eabi/4.3.3/thumb2/libgcc.a(_udivdi3.o)
                0x0002520c                __udivdi3
 .text          0x000255d8        0x0 /home/anzinger/openocd/arm-2009q1/bin/../lib/gcc/arm-none-eabi/4.3.3/thumb2/libgcc.a(_clz.o)
 *(.rodata*)
 .rodata        0x000255d8      0x110 main.o
 .rodata        0x000256e8       0x1c ../common/drivers/LuminaryMicro/ustdlib.o
 .rodata.g_pcHex
                0x00025704        0x4 ../common/drivers/LuminaryMicro/ustdlib.o
 .rodata        0x00025708       0x50 ../common/rtos/Source/tasks.o
 .rodata.ucExpectedStackBytes.3437
                0x00025758       0x14 ../common/rtos/Source/tasks.o
 .rodata.ulKernelPriority
                0x0002576c        0x4 ../common/rtos/Source/portable/GCC/ARM_CM3/port.o
                0x0002576c                ulKernelPriority
 .rodata.heapSTRUCT_SIZE
                0x00025770        0x2 ../common/rtos/Source/portable/MemMang/heap_2.o
 *fill*         0x00025772        0x2 00
 .rodata        0x00025774       0x18 ../common/ethernet/LMlwip/src/core/sntp.o
 .rodata        0x0002578c       0x10 ../common/ethernet/LMlwip/src/core/dns.o
 .rodata        0x0002579c       0x2c ../common/ethernet/LMlwip/src/core/pbuf.o
 .rodata.ip_addr_any
                0x000257c8        0x4 ../common/ethernet/LMlwip/src/core/ipv4/ip_addr.o
                0x000257c8                ip_addr_any
 .rodata.ip_addr_broadcast
                0x000257cc        0x4 ../common/ethernet/LMlwip/src/core/ipv4/ip_addr.o
                0x000257cc                ip_addr_broadcast
 .rodata        0x000257d0       0x2c ../common/ethernet/LMlwip/src/core/udp.o
 .rodata        0x000257fc       0x30 ../common/ethernet/LMlwip/src/core/tcp_out.o
 .rodata.tcp_backoff
                0x0002582c        0xd ../common/ethernet/LMlwip/src/core/tcp.o
                0x0002582c                tcp_backoff
 .rodata.tcp_persist_backoff
                0x00025839        0x7 ../common/ethernet/LMlwip/src/core/tcp.o
                0x00025839                tcp_persist_backoff
 .rodata        0x00025840       0x2c ../common/ethernet/LMlwip/src/core/tcp.o
 .rodata        0x0002586c       0x2c ../common/ethernet/LMlwip/src/core/raw.o
 .rodata.memp_sizes
                0x00025898       0x1a ../common/ethernet/LMlwip/src/core/memp.o
 .rodata.memp_num
                0x000258b2       0x1a ../common/ethernet/LMlwip/src/core/memp.o
 .rodata        0x000258cc       0x2c ../common/ethernet/LMlwip/src/core/sys.o
 .rodata        0x000258f8       0x3c ../common/ethernet/LMlwip/src/api/tcpip.o
 .rodata        0x00025934       0x2c ../common/ethernet/LMlwip/src/api/api_msg.o
 .rodata.err_to_errno_table
                0x00025960       0x3c ../common/ethernet/LMlwip/src/api/sockets.o
 .rodata        0x0002599c       0x2c ../common/ethernet/LMlwip/src/api/netbuf.o
 .rodata        0x000259c8       0x2c ../common/ethernet/LMlwip/src/api/api_lib.o
 .rodata.ethbroadcast
                0x000259f4        0x6 ../common/ethernet/LMlwip/src/netif/etharp.o
                0x000259f4                ethbroadcast
 .rodata.ethzero
                0x000259fa        0x6 ../common/ethernet/LMlwip/src/netif/etharp.o
                0x000259fa                ethzero
 .rodata        0x00025a00       0x30 ../common/ethernet/LMlwip/src/netif/etharp.o
 .rodata        0x00025a30        0xc ../common/fatfs/ff.o
 .rodata.fatstr.2446
                0x00025a3c        0x4 ../common/fatfs/ff.o
 .rodata        0x00025a40      0x20c ../common/fatfs/SDcard.o
 .rodata.ETHPeripheral
                0x00025c4c        0x4 ethernet/ETHIsr.o
 .rodata.ETHPeripheralGate
                0x00025c50        0x4 ethernet/ETHIsr.o
 .rodata.ETHBase
                0x00025c54        0x4 ethernet/ETHIsr.o
 .rodata.ETHPortBase
                0x00025c58        0x4 ethernet/ETHIsr.o
 .rodata.ETHPins
                0x00025c5c        0x4 ethernet/ETHIsr.o
 .rodata.ETHInterrupt
                0x00025c60        0x4 ethernet/ETHIsr.o
 .rodata        0x00025c64        0xc ethernet/LWIPStack.o
 .rodata.data_404_html
                0x00025c70      0x14a httpd/lmi_fs.o
 .rodata.data_family_html
                0x00025dba      0xce4 httpd/lmi_fs.o
 .rodata.data_images_lmi_logo_gif
                0x00026a9e      0x695 httpd/lmi_fs.o
 .rodata.data_images_lmi_tm_gif
                0x00027133      0x438 httpd/lmi_fs.o
 .rodata.data_index_html
                0x0002756b      0x31f httpd/lmi_fs.o
 .rodata.data_io_cgi_shtml
                0x0002788a      0x7bc httpd/lmi_fs.o
 .rodata.data_IPstats_head
                0x00028046      0x33f httpd/lmi_fs.o
 .rodata.data_IPstats_tail
                0x00028385       0x6e httpd/lmi_fs.o
 .rodata.data_ledistaus_html
                0x000283f3      0x156 httpd/lmi_fs.o
 .rodata.data_ledistein_html
                0x00028549      0x157 httpd/lmi_fs.o
 .rodata.data_Logging_head
                0x000286a0      0x35c httpd/lmi_fs.o
 .rodata.data_Logging_tail
                0x000289fc       0x6f httpd/lmi_fs.o
 .rodata.data_perror_html
                0x00028a6b      0x436 httpd/lmi_fs.o
 .rodata.data_RTOSstats_head
                0x00028ea1      0x351 httpd/lmi_fs.o
 .rodata.data_RTOSstats_tail
                0x000291f2       0xe8 httpd/lmi_fs.o
 .rodata.data_style_css
                0x000292da      0x5c3 httpd/lmi_fs.o
 *fill*         0x0002989d        0x3 00
 .rodata.file_style_css
                0x000298a0       0x10 httpd/lmi_fs.o
                0x000298a0                file_style_css
 .rodata.file_RTOSstats_tail
                0x000298b0       0x10 httpd/lmi_fs.o
                0x000298b0                file_RTOSstats_tail
 .rodata.file_RTOSstats_head
                0x000298c0       0x10 httpd/lmi_fs.o
                0x000298c0                file_RTOSstats_head
 .rodata.file_perror_html
                0x000298d0       0x10 httpd/lmi_fs.o
                0x000298d0                file_perror_html
 .rodata.file_Logging_tail
                0x000298e0       0x10 httpd/lmi_fs.o
                0x000298e0                file_Logging_tail
 .rodata.file_Logging_head
                0x000298f0       0x10 httpd/lmi_fs.o
                0x000298f0                file_Logging_head
 .rodata.file_ledistein_html
                0x00029900       0x10 httpd/lmi_fs.o
                0x00029900                file_ledistein_html
 .rodata.file_ledistaus_html
                0x00029910       0x10 httpd/lmi_fs.o
                0x00029910                file_ledistaus_html
 .rodata.file_IPstats_tail
                0x00029920       0x10 httpd/lmi_fs.o
                0x00029920                file_IPstats_tail
 .rodata.file_IPstats_head
                0x00029930       0x10 httpd/lmi_fs.o
                0x00029930                file_IPstats_head
 .rodata.file_io_cgi_shtml
                0x00029940       0x10 httpd/lmi_fs.o
                0x00029940                file_io_cgi_shtml
 .rodata.file_index_html
                0x00029950       0x10 httpd/lmi_fs.o
                0x00029950                file_index_html
 .rodata.file_images_lmi_tm_gif
                0x00029960       0x10 httpd/lmi_fs.o
                0x00029960                file_images_lmi_tm_gif
 .rodata.file_images_lmi_logo_gif
                0x00029970       0x10 httpd/lmi_fs.o
                0x00029970                file_images_lmi_logo_gif
 .rodata.file_family_html
                0x00029980       0x10 httpd/lmi_fs.o
                0x00029980                file_family_html
 .rodata.file_404_html
                0x00029990       0x10 httpd/lmi_fs.o
                0x00029990                file_404_html
 .rodata        0x000299a0       0x90 httpd/lmi_fs.o
 .rodata        0x00029a30       0xa0 httpd/httpd.o
 .rodata.g_psDefaultFilenames
                0x00029ad0       0x28 httpd/httpd.o
                0x00029ad0                g_psDefaultFilenames
 .rodata.g_pcTagLeadIn
                0x00029af8        0x4 httpd/httpd.o
                0x00029af8                g_pcTagLeadIn
 .rodata.g_pcTagLeadOut
                0x00029afc        0x4 httpd/httpd.o
                0x00029afc                g_pcTagLeadOut
 .rodata        0x00029b00        0x8 httpd/cgifuncs.o
 .rodata        0x00029b08       0x10 httpd/netbios.o
 .rodata.g_pulFMPPERegs
                0x00029b18       0x10 ../common/drivers/LuminaryMicro/arm-none-eabi-gcc/libdriver.a(flash.o)
 .rodata.g_pulFMPRERegs
                0x00029b28       0x10 ../common/drivers/LuminaryMicro/arm-none-eabi-gcc/libdriver.a(flash.o)
 .rodata.g_pulPriority
                0x00029b38       0x20 ../common/drivers/LuminaryMicro/arm-none-eabi-gcc/libdriver.a(interrupt.o)
 .rodata.g_pulRegs
                0x00029b58       0x40 ../common/drivers/LuminaryMicro/arm-none-eabi-gcc/libdriver.a(interrupt.o)
 .rodata.g_pulDCRegs
                0x00029b98       0x10 ../common/drivers/LuminaryMicro/arm-none-eabi-gcc/libdriver.a(sysctl.o)
 .rodata.g_pulXtals
                0x00029ba8       0x5c ../common/drivers/LuminaryMicro/arm-none-eabi-gcc/libdriver.a(sysctl.o)
 .rodata.g_pulDCGCRegs
                0x00029c04        0xc ../common/drivers/LuminaryMicro/arm-none-eabi-gcc/libdriver.a(sysctl.o)
 .rodata.g_pulRCGCRegs
                0x00029c10        0xc ../common/drivers/LuminaryMicro/arm-none-eabi-gcc/libdriver.a(sysctl.o)
 .rodata.g_pulSCGCRegs
                0x00029c1c        0xc ../common/drivers/LuminaryMicro/arm-none-eabi-gcc/libdriver.a(sysctl.o)
 .rodata.g_pulSRCRRegs
                0x00029c28        0xc ../common/drivers/LuminaryMicro/arm-none-eabi-gcc/libdriver.a(sysctl.o)
 .rodata        0x00029c34       0x68 /home/anzinger/openocd/arm-2009q1/bin/../lib/gcc/arm-none-eabi/4.3.3/../../../../arm-none-eabi/lib/thumb2/libc.a(lib_a-mktm_r.o)
 .rodata.str1.4
                0x00029c9c        0x4 /home/anzinger/openocd/arm-2009q1/bin/../lib/gcc/arm-none-eabi/4.3.3/../../../../arm-none-eabi/lib/thumb2/libc.a(lib_a-tzvars.o)
 .rodata        0x00029ca0       0x39 /home/anzinger/openocd/arm-2009q1/bin/../lib/gcc/arm-none-eabi/4.3.3/../../../../arm-none-eabi/lib/thumb2/libc.a(lib_a-asctime_r.o)
 *fill*         0x00029cd9        0x3 00
 .rodata.str1.4
                0x00029cdc       0x20 /home/anzinger/openocd/arm-2009q1/bin/../lib/gcc/arm-none-eabi/4.3.3/../../../../arm-none-eabi/lib/thumb2/libc.a(lib_a-asctime_r.o)
 .rodata        0x00029cfc        0x4 /home/anzinger/openocd/arm-2009q1/bin/../lib/gcc/arm-none-eabi/4.3.3/../../../../arm-none-eabi/lib/thumb2/libc.a(lib_a-impure.o)
                0x00029cfc                _global_impure_ptr
 .rodata.str1.4
                0x00029d00        0x2 /home/anzinger/openocd/arm-2009q1/bin/../lib/gcc/arm-none-eabi/4.3.3/../../../../arm-none-eabi/lib/thumb2/libc.a(lib_a-impure.o)
                                  0x4 (size before relaxing)
 .rodata        0x00029d02       0x20 /home/anzinger/openocd/arm-2009q1/bin/../lib/gcc/arm-none-eabi/4.3.3/../../../../arm-none-eabi/lib/thumb2/libc.a(lib_a-svfprintf.o)
 *fill*         0x00029d22        0x2 00
 .rodata.str1.4
                0x00029d24       0x5e /home/anzinger/openocd/arm-2009q1/bin/../lib/gcc/arm-none-eabi/4.3.3/../../../../arm-none-eabi/lib/thumb2/libc.a(lib_a-svfprintf.o)
                                 0x60 (size before relaxing)
 *fill*         0x00029d82        0x2 00
 .rodata.str1.4
                0x00029d84       0x10 /home/anzinger/openocd/arm-2009q1/bin/../lib/gcc/arm-none-eabi/4.3.3/../../../../arm-none-eabi/lib/thumb2/libc.a(lib_a-dtoa.o)
                                 0x14 (size before relaxing)
 .rodata        0x00029d94       0x34 /home/anzinger/openocd/arm-2009q1/bin/../lib/gcc/arm-none-eabi/4.3.3/../../../../arm-none-eabi/lib/thumb2/libc.a(lib_a-locale.o)
 .rodata.str1.4
                0x00029dc8       0x10 /home/anzinger/openocd/arm-2009q1/bin/../lib/gcc/arm-none-eabi/4.3.3/../../../../arm-none-eabi/lib/thumb2/libc.a(lib_a-locale.o)
                                 0x18 (size before relaxing)
 .rodata        0x00029dd8      0x128 /home/anzinger/openocd/arm-2009q1/bin/../lib/gcc/arm-none-eabi/4.3.3/../../../../arm-none-eabi/lib/thumb2/libc.a(lib_a-mprec.o)
                0x00029ed8                __mprec_tinytens
                0x00029dd8                __mprec_tens
                0x00029eb0                __mprec_bigtens
 .rodata        0x00029f00      0x100 /home/anzinger/openocd/arm-2009q1/bin/../lib/gcc/arm-none-eabi/4.3.3/thumb2/libgcc.a(_clz.o)
                0x00029f00                __clz_tab
                0x0002a000                _etext = .

.ARM.extab      0x0002a000        0x0
 .ARM.extab     0x0002a000        0x0 /home/anzinger/openocd/arm-2009q1/bin/../lib/gcc/arm-none-eabi/4.3.3/thumb2/libgcc.a(_divdi3.o)
 .ARM.extab     0x0002a000        0x0 /home/anzinger/openocd/arm-2009q1/bin/../lib/gcc/arm-none-eabi/4.3.3/thumb2/libgcc.a(_udivdi3.o)

.ARM.exidx      0x0002a000        0x8
 .ARM.exidx     0x0002a000        0x8 /home/anzinger/openocd/arm-2009q1/bin/../lib/gcc/arm-none-eabi/4.3.3/thumb2/libgcc.a(_divdi3.o)
 .ARM.exidx     0x0002a008        0x0 /home/anzinger/openocd/arm-2009q1/bin/../lib/gcc/arm-none-eabi/4.3.3/thumb2/libgcc.a(_udivdi3.o)
                                  0x8 (size before relaxing)

.glue_7         0x0002a008        0x0
 .glue_7        0x00000000        0x0 linker stubs

.glue_7t        0x0002a008        0x0
 .glue_7t       0x00000000        0x0 linker stubs

.vfp11_veneer   0x0002a008        0x0
 .vfp11_veneer  0x00000000        0x0 linker stubs

.v4_bx          0x0002a008        0x0
 .v4_bx         0x00000000        0x0 linker stubs

.data           0x20000000      0x6d0 load address 0x0002a000
                0x20000000                _data = .
 *(vtable)
 vtable         0x20000000      0x100 ../common/drivers/LuminaryMicro/arm-none-eabi-gcc/libdriver.a(interrupt.o)
 *(.data*)
 .data          0x20000100        0x0 main.o
 .data          0x20000100        0x0 timertest.o
 .data          0x20000100        0x0 ../common/drivers/LuminaryMicro/ustdlib.o
 .data          0x20000100        0x0 ../common/rtos/Source/list.o
 .data          0x20000100        0x0 ../common/rtos/Source/queue.o
 .data          0x20000100        0x0 ../common/rtos/Source/tasks.o
 .data.uxPreviousTask
                0x20000100        0x4 ../common/rtos/Source/tasks.o
 .data          0x20000104        0x0 ../common/rtos/Source/portable/GCC/ARM_CM3/port.o
 .data.uxCriticalNesting
                0x20000104        0x4 ../common/rtos/Source/portable/GCC/ARM_CM3/port.o
 .data          0x20000108        0x0 ../common/rtos/Source/portable/MemMang/heap_2.o
 .data          0x20000108        0x0 ../common/ethernet/LMlwip/src/core/sntp.o
 .data          0x20000108        0x0 ../common/ethernet/LMlwip/src/core/dhcp.o
 .data.xid      0x20000108        0x4 ../common/ethernet/LMlwip/src/core/dhcp.o
 .data          0x2000010c        0x0 ../common/ethernet/LMlwip/src/core/dns.o
 .data          0x2000010c        0x0 ../common/ethernet/LMlwip/contrib/port/FreeRTOS/sys_arch.o
 .data          0x2000010c        0x0 ../common/ethernet/LMlwip/src/core/stats.o
 .data          0x2000010c        0x0 ../common/ethernet/LMlwip/src/core/netif.o
 .data          0x2000010c        0x0 ../common/ethernet/LMlwip/src/core/pbuf.o
 .data          0x2000010c        0x0 ../common/ethernet/LMlwip/src/core/ipv4/ip_frag.o
 .data          0x2000010c        0x0 ../common/ethernet/LMlwip/src/core/ipv4/autoip.o
 .data          0x2000010c        0x0 ../common/ethernet/LMlwip/src/core/ipv4/icmp.o
 .data          0x2000010c        0x0 ../common/ethernet/LMlwip/src/core/ipv4/igmp.o
 .data          0x2000010c        0x0 ../common/ethernet/LMlwip/src/core/ipv4/inet.o
 .data          0x2000010c        0x0 ../common/ethernet/LMlwip/src/core/ipv4/inet_chksum.o
 .data          0x2000010c        0x0 ../common/ethernet/LMlwip/src/core/ipv4/ip.o
 .data          0x2000010c        0x0 ../common/ethernet/LMlwip/src/core/ipv4/ip_addr.o
 .data          0x2000010c        0x0 ../common/ethernet/LMlwip/src/core/udp.o
 .data          0x2000010c        0x0 ../common/ethernet/LMlwip/src/core/tcp_out.o
 .data          0x2000010c        0x0 ../common/ethernet/LMlwip/src/core/tcp_in.o
 .data          0x2000010c        0x0 ../common/ethernet/LMlwip/src/core/tcp.o
 .data.port.2811
                0x2000010c        0x2 ../common/ethernet/LMlwip/src/core/tcp.o
 *fill*         0x2000010e        0x2 00
 .data.iss.3372
                0x20000110        0x4 ../common/ethernet/LMlwip/src/core/tcp.o
 .data          0x20000114        0x0 ../common/ethernet/LMlwip/src/core/init.o
 .data          0x20000114        0x0 ../common/ethernet/LMlwip/src/core/mem.o
 .data          0x20000114        0x0 ../common/ethernet/LMlwip/src/core/raw.o
 .data          0x20000114        0x0 ../common/ethernet/LMlwip/src/core/memp.o
 .data          0x20000114        0x0 ../common/ethernet/LMlwip/src/core/sys.o
 .data          0x20000114        0x0 ../common/ethernet/LMlwip/src/api/tcpip.o
 .data          0x20000114        0x0 ../common/ethernet/LMlwip/src/api/api_msg.o
 .data          0x20000114        0x0 ../common/ethernet/LMlwip/src/api/sockets.o
 .data          0x20000114        0x0 ../common/ethernet/LMlwip/src/api/netbuf.o
 .data          0x20000114        0x0 ../common/ethernet/LMlwip/src/api/api_lib.o
 .data          0x20000114        0x0 ../common/ethernet/LMlwip/src/netif/etharp.o
 .data          0x20000114        0x0 ../common/fatfs/ff.o
 .data          0x20000114        0x0 ../common/fatfs/mmc-ek-lm3s8962.o
 .data.Stat     0x20000114        0x1 ../common/fatfs/mmc-ek-lm3s8962.o
 .data          0x20000115        0x0 ../common/fatfs/SDcard.o
 *fill*         0x20000115        0x3 00
 .data.g_cCwdBuf
                0x20000118       0x50 ../common/fatfs/SDcard.o
 .data          0x20000168        0x0 ethernet/ETHIsr.o
 .data          0x20000168        0x0 ethernet/LWIPStack.o
 .data          0x20000168        0x0 httpd/lmi_fs.o
 .data          0x20000168        0x0 httpd/httpd.o
 .data.g_pcSSIExtensions
                0x20000168        0xc httpd/httpd.o
                0x20000168                g_pcSSIExtensions
 .data          0x20000174        0x0 httpd/cgifuncs.o
 .data          0x20000174        0x0 httpd/netbios.o
 .data          0x20000174        0x0 startup.o
 .data          0x20000174        0x0 ../common/drivers/LuminaryMicro/arm-none-eabi-gcc/libdriver.a(ethernet.o)
 .data          0x20000174        0x0 ../common/drivers/LuminaryMicro/arm-none-eabi-gcc/libdriver.a(flash.o)
 .data          0x20000174        0x0 ../common/drivers/LuminaryMicro/arm-none-eabi-gcc/libdriver.a(gpio.o)
 .data          0x20000174        0x0 ../common/drivers/LuminaryMicro/arm-none-eabi-gcc/libdriver.a(interrupt.o)
 .data          0x20000174        0x0 ../common/drivers/LuminaryMicro/arm-none-eabi-gcc/libdriver.a(ssi.o)
 .data          0x20000174        0x0 ../common/drivers/LuminaryMicro/arm-none-eabi-gcc/libdriver.a(sysctl.o)
 .data          0x20000174        0x0 ../common/drivers/LuminaryMicro/arm-none-eabi-gcc/libdriver.a(timer.o)
 .data          0x20000174        0x0 ../common/drivers/LuminaryMicro/arm-none-eabi-gcc/libdriver.a(cpu.o)
 .data          0x20000174        0x0 /home/anzinger/openocd/arm-2009q1/bin/../lib/gcc/arm-none-eabi/4.3.3/../../../../arm-none-eabi/lib/thumb2/libc.a(lib_a-ctime.o)
 .data          0x20000174        0x0 /home/anzinger/openocd/arm-2009q1/bin/../lib/gcc/arm-none-eabi/4.3.3/../../../../arm-none-eabi/lib/thumb2/libc.a(lib_a-lcltime.o)
 .data          0x20000174        0x0 /home/anzinger/openocd/arm-2009q1/bin/../lib/gcc/arm-none-eabi/4.3.3/../../../../arm-none-eabi/lib/thumb2/libc.a(lib_a-lcltime_r.o)
 .data          0x20000174        0x0 /home/anzinger/openocd/arm-2009q1/bin/../lib/gcc/arm-none-eabi/4.3.3/../../../../arm-none-eabi/lib/thumb2/libc.a(lib_a-malloc.o)
 .data          0x20000174      0x410 /home/anzinger/openocd/arm-2009q1/bin/../lib/gcc/arm-none-eabi/4.3.3/../../../../arm-none-eabi/lib/thumb2/libc.a(lib_a-mallocr.o)
                0x2000057c                __malloc_sbrk_base
                0x20000174                __malloc_av_
                0x20000580                __malloc_trim_threshold
 .data          0x20000584        0x0 /home/anzinger/openocd/arm-2009q1/bin/../lib/gcc/arm-none-eabi/4.3.3/../../../../arm-none-eabi/lib/thumb2/libc.a(lib_a-memcmp.o)
 .data          0x20000584        0x0 /home/anzinger/openocd/arm-2009q1/bin/../lib/gcc/arm-none-eabi/4.3.3/../../../../arm-none-eabi/lib/thumb2/libc.a(lib_a-memcpy.o)
 .data          0x20000584        0x0 /home/anzinger/openocd/arm-2009q1/bin/../lib/gcc/arm-none-eabi/4.3.3/../../../../arm-none-eabi/lib/thumb2/libc.a(lib_a-memset.o)
 .data          0x20000584        0x0 /home/anzinger/openocd/arm-2009q1/bin/../lib/gcc/arm-none-eabi/4.3.3/../../../../arm-none-eabi/lib/thumb2/libc.a(lib_a-mktm_r.o)
 .data          0x20000584        0x0 /home/anzinger/openocd/arm-2009q1/bin/../lib/gcc/arm-none-eabi/4.3.3/../../../../arm-none-eabi/lib/thumb2/libc.a(lib_a-mlock.o)
 .data          0x20000584        0x0 /home/anzinger/openocd/arm-2009q1/bin/../lib/gcc/arm-none-eabi/4.3.3/../../../../arm-none-eabi/lib/thumb2/libc.a(lib_a-sbrkr.o)
 .data          0x20000584        0x0 /home/anzinger/openocd/arm-2009q1/bin/../lib/gcc/arm-none-eabi/4.3.3/../../../../arm-none-eabi/lib/thumb2/libc.a(lib_a-strcat.o)
 .data          0x20000584        0x0 /home/anzinger/openocd/arm-2009q1/bin/../lib/gcc/arm-none-eabi/4.3.3/../../../../arm-none-eabi/lib/thumb2/libc.a(lib_a-strchr.o)
 .data          0x20000584        0x0 /home/anzinger/openocd/arm-2009q1/bin/../lib/gcc/arm-none-eabi/4.3.3/../../../../arm-none-eabi/lib/thumb2/libc.a(lib_a-strcmp.o)
 .data          0x20000584        0x0 /home/anzinger/openocd/arm-2009q1/bin/../lib/gcc/arm-none-eabi/4.3.3/../../../../arm-none-eabi/lib/thumb2/libc.a(lib_a-strcpy.o)
 .data          0x20000584        0x0 /home/anzinger/openocd/arm-2009q1/bin/../lib/gcc/arm-none-eabi/4.3.3/../../../../arm-none-eabi/lib/thumb2/libc.a(lib_a-strlen.o)
 .data          0x20000584        0x0 /home/anzinger/openocd/arm-2009q1/bin/../lib/gcc/arm-none-eabi/4.3.3/../../../../arm-none-eabi/lib/thumb2/libc.a(lib_a-strncmp.o)
 .data          0x20000584        0x0 /home/anzinger/openocd/arm-2009q1/bin/../lib/gcc/arm-none-eabi/4.3.3/../../../../arm-none-eabi/lib/thumb2/libc.a(lib_a-strncpy.o)
 .data          0x20000584        0x0 /home/anzinger/openocd/arm-2009q1/bin/../lib/gcc/arm-none-eabi/4.3.3/../../../../arm-none-eabi/lib/thumb2/libc.a(lib_a-strstr.o)
 .data          0x20000584        0x0 /home/anzinger/openocd/arm-2009q1/bin/../lib/gcc/arm-none-eabi/4.3.3/../../../../arm-none-eabi/lib/thumb2/libc.a(lib_a-tzlock.o)
 .data          0x20000584        0x8 /home/anzinger/openocd/arm-2009q1/bin/../lib/gcc/arm-none-eabi/4.3.3/../../../../arm-none-eabi/lib/thumb2/libc.a(lib_a-tzvars.o)
                0x20000584                _tzname
 .data          0x2000058c        0x0 /home/anzinger/openocd/arm-2009q1/bin/../lib/gcc/arm-none-eabi/4.3.3/../../../../arm-none-eabi/lib/thumb2/libc.a(lib_a-asctime.o)
 .data          0x2000058c        0x0 /home/anzinger/openocd/arm-2009q1/bin/../lib/gcc/arm-none-eabi/4.3.3/../../../../arm-none-eabi/lib/thumb2/libc.a(lib_a-asctime_r.o)
 .data          0x2000058c        0x0 /home/anzinger/openocd/arm-2009q1/bin/../lib/gcc/arm-none-eabi/4.3.3/../../../../arm-none-eabi/lib/thumb2/libc.a(lib_a-freer.o)
 .data          0x2000058c       0x40 /home/anzinger/openocd/arm-2009q1/bin/../lib/gcc/arm-none-eabi/4.3.3/../../../../arm-none-eabi/lib/thumb2/libc.a(lib_a-gettzinfo.o)
 .data          0x200005cc       0xf4 /home/anzinger/openocd/arm-2009q1/bin/../lib/gcc/arm-none-eabi/4.3.3/../../../../arm-none-eabi/lib/thumb2/libc.a(lib_a-impure.o)
                0x200005cc                _impure_ptr
 .data          0x200006c0        0x0 /home/anzinger/openocd/arm-2009q1/bin/../lib/gcc/arm-none-eabi/4.3.3/../../../../arm-none-eabi/lib/thumb2/libc.a(lib_a-memchr.o)
 .data          0x200006c0        0x0 /home/anzinger/openocd/arm-2009q1/bin/../lib/gcc/arm-none-eabi/4.3.3/../../../../arm-none-eabi/lib/thumb2/libc.a(lib_a-reent.o)
 .data          0x200006c0        0x0 /home/anzinger/openocd/arm-2009q1/bin/../lib/gcc/arm-none-eabi/4.3.3/../../../../arm-none-eabi/lib/thumb2/libc.a(lib_a-sprintf.o)
 .data          0x200006c0        0x0 /home/anzinger/openocd/arm-2009q1/bin/../lib/gcc/arm-none-eabi/4.3.3/../../../../arm-none-eabi/lib/thumb2/libc.a(lib_a-svfprintf.o)
 .data          0x200006c0        0x0 /home/anzinger/openocd/arm-2009q1/bin/../lib/gcc/arm-none-eabi/4.3.3/../../../../arm-none-eabi/lib/thumb2/libc.a(lib_a-dtoa.o)
 .data          0x200006c0       0x10 /home/anzinger/openocd/arm-2009q1/bin/../lib/gcc/arm-none-eabi/4.3.3/../../../../arm-none-eabi/lib/thumb2/libc.a(lib_a-locale.o)
                0x200006c0                __mb_cur_max
                0x200006c4                __lc_ctype
 .data          0x200006d0        0x0 /home/anzinger/openocd/arm-2009q1/bin/../lib/gcc/arm-none-eabi/4.3.3/../../../../arm-none-eabi/lib/thumb2/libc.a(lib_a-memmove.o)
 .data          0x200006d0        0x0 /home/anzinger/openocd/arm-2009q1/bin/../lib/gcc/arm-none-eabi/4.3.3/../../../../arm-none-eabi/lib/thumb2/libc.a(lib_a-mprec.o)
 .data          0x200006d0        0x0 /home/anzinger/openocd/arm-2009q1/bin/../lib/gcc/arm-none-eabi/4.3.3/../../../../arm-none-eabi/lib/thumb2/libc.a(lib_a-reallocr.o)
 .data          0x200006d0        0x0 /home/anzinger/openocd/arm-2009q1/bin/../lib/gcc/arm-none-eabi/4.3.3/../../../../arm-none-eabi/lib/thumb2/libc.a(lib_a-s_isinfd.o)
 .data          0x200006d0        0x0 /home/anzinger/openocd/arm-2009q1/bin/../lib/gcc/arm-none-eabi/4.3.3/../../../../arm-none-eabi/lib/thumb2/libc.a(lib_a-s_isnand.o)
 .data          0x200006d0        0x0 /home/anzinger/openocd/arm-2009q1/bin/../lib/gcc/arm-none-eabi/4.3.3/../../../../arm-none-eabi/lib/thumb2/libc.a(lib_a-callocr.o)
 .data          0x200006d0        0x0 /home/anzinger/openocd/arm-2009q1/bin/../lib/gcc/arm-none-eabi/4.3.3/thumb2/libgcc.a(_udivsi3.o)
 .data          0x200006d0        0x0 /home/anzinger/openocd/arm-2009q1/bin/../lib/gcc/arm-none-eabi/4.3.3/thumb2/libgcc.a(_dvmd_tls.o)
 .data          0x200006d0        0x0 /home/anzinger/openocd/arm-2009q1/bin/../lib/gcc/arm-none-eabi/4.3.3/thumb2/libgcc.a(_arm_addsubdf3.o)
 .data          0x200006d0        0x0 /home/anzinger/openocd/arm-2009q1/bin/../lib/gcc/arm-none-eabi/4.3.3/thumb2/libgcc.a(_arm_muldivdf3.o)
 .data          0x200006d0        0x0 /home/anzinger/openocd/arm-2009q1/bin/../lib/gcc/arm-none-eabi/4.3.3/thumb2/libgcc.a(_arm_cmpdf2.o)
 .data          0x200006d0        0x0 /home/anzinger/openocd/arm-2009q1/bin/../lib/gcc/arm-none-eabi/4.3.3/thumb2/libgcc.a(_arm_fixdfsi.o)
 .data          0x200006d0        0x0 /home/anzinger/openocd/arm-2009q1/bin/../lib/gcc/arm-none-eabi/4.3.3/thumb2/libgcc.a(_aeabi_uldivmod.o)
 .data          0x200006d0        0x0 /home/anzinger/openocd/arm-2009q1/bin/../lib/gcc/arm-none-eabi/4.3.3/thumb2/libgcc.a(bpabi.o)
 .data          0x200006d0        0x0 /home/anzinger/openocd/arm-2009q1/bin/../lib/gcc/arm-none-eabi/4.3.3/thumb2/libgcc.a(_divdi3.o)
 .data          0x200006d0        0x0 /home/anzinger/openocd/arm-2009q1/bin/../lib/gcc/arm-none-eabi/4.3.3/thumb2/libgcc.a(_udivdi3.o)
 .data          0x200006d0        0x0 /home/anzinger/openocd/arm-2009q1/bin/../lib/gcc/arm-none-eabi/4.3.3/thumb2/libgcc.a(_clz.o)
                0x200006d0                _edata = .

.bss            0x200006d0     0xba74 load address 0x0002a6d0
                0x200006d0                _bss = .
 *(.bss*)
 .bss           0x200006d0        0x0 main.o
 .bss.ulIdleError
                0x200006d0        0x4 main.o
                0x200006d0                ulIdleError
 .bss           0x200006d4        0x0 timertest.o
 .bss.ulMaxJitter
                0x200006d4        0x4 timertest.o
                0x200006d4                ulMaxJitter
 .bss.ulHighFrequencyTimerTicks
                0x200006d8        0x4 timertest.o
                0x200006d8                ulHighFrequencyTimerTicks
 .bss.ulLastCount.1482
                0x200006dc        0x4 timertest.o
 .bss.ulMaxDifference.1481
                0x200006e0        0x4 timertest.o
 .bss           0x200006e4        0x0 ../common/drivers/LuminaryMicro/ustdlib.o
 .bss           0x200006e4        0x0 ../common/rtos/Source/list.o
 .bss           0x200006e4        0x0 ../common/rtos/Source/queue.o
 .bss           0x200006e4        0x0 ../common/rtos/Source/tasks.o
 .bss.pxCurrentTCB
                0x200006e4        0x4 ../common/rtos/Source/tasks.o
                0x200006e4                pxCurrentTCB
 .bss.uxTasksDeleted
                0x200006e8        0x4 ../common/rtos/Source/tasks.o
 .bss.uxCurrentNumberOfTasks
                0x200006ec        0x4 ../common/rtos/Source/tasks.o
 .bss.xTickCount
                0x200006f0        0x4 ../common/rtos/Source/tasks.o
 .bss.uxTopUsedPriority
                0x200006f4        0x4 ../common/rtos/Source/tasks.o
 .bss.uxTopReadyPriority
                0x200006f8        0x4 ../common/rtos/Source/tasks.o
 .bss.xSchedulerRunning
                0x200006fc        0x4 ../common/rtos/Source/tasks.o
 .bss.uxSchedulerSuspended
                0x20000700        0x4 ../common/rtos/Source/tasks.o
 .bss.uxMissedTicks
                0x20000704        0x4 ../common/rtos/Source/tasks.o
 .bss.xMissedYield
                0x20000708        0x4 ../common/rtos/Source/tasks.o
 .bss.xNumOfOverflows
                0x2000070c        0x4 ../common/rtos/Source/tasks.o
 .bss.uxTaskNumber
                0x20000710        0x4 ../common/rtos/Source/tasks.o
 .bss.ulTaskSwitchedInTime
                0x20000714        0x4 ../common/rtos/Source/tasks.o
 .bss.xTracing  0x20000718        0x4 ../common/rtos/Source/tasks.o
 .bss.pxReadyTasksLists
                0x2000071c       0x64 ../common/rtos/Source/tasks.o
 .bss.xDelayedTaskList1
                0x20000780       0x14 ../common/rtos/Source/tasks.o
 .bss.xDelayedTaskList2
                0x20000794       0x14 ../common/rtos/Source/tasks.o
 .bss.pxDelayedTaskList
                0x200007a8        0x4 ../common/rtos/Source/tasks.o
 .bss.pxOverflowDelayedTaskList
                0x200007ac        0x4 ../common/rtos/Source/tasks.o
 .bss.xPendingReadyList
                0x200007b0       0x14 ../common/rtos/Source/tasks.o
 .bss.xTasksWaitingTermination
                0x200007c4       0x14 ../common/rtos/Source/tasks.o
 .bss.xSuspendedTaskList
                0x200007d8       0x14 ../common/rtos/Source/tasks.o
 .bss.pcStatsString
                0x200007ec       0x32 ../common/rtos/Source/tasks.o
 *fill*         0x2000081e        0x2 00
 .bss.pcTraceBuffer
                0x20000820        0x4 ../common/rtos/Source/tasks.o
 .bss.pcTraceBufferStart
                0x20000824        0x4 ../common/rtos/Source/tasks.o
 .bss.pcTraceBufferEnd
                0x20000828        0x4 ../common/rtos/Source/tasks.o
 .bss.pcStatusString
                0x2000082c       0x32 ../common/rtos/Source/tasks.o
 .bss           0x2000085e        0x0 ../common/rtos/Source/portable/GCC/ARM_CM3/port.o
 .bss           0x2000085e        0x0 ../common/rtos/Source/portable/MemMang/heap_2.o
 *fill*         0x2000085e        0x2 00
 .bss.xHeapHasBeenInitialised.1962
                0x20000860        0x4 ../common/rtos/Source/portable/MemMang/heap_2.o
 *fill*         0x20000864        0x4 00
 .bss.xHeap     0x20000868     0x5dc0 ../common/rtos/Source/portable/MemMang/heap_2.o
 .bss.xStart    0x20006628        0x8 ../common/rtos/Source/portable/MemMang/heap_2.o
 .bss.xEnd      0x20006630        0x8 ../common/rtos/Source/portable/MemMang/heap_2.o
 .bss.xFreeBytesRemaining
                0x20006638        0x4 ../common/rtos/Source/portable/MemMang/heap_2.o
 .bss           0x2000663c        0x0 ../common/ethernet/LMlwip/src/core/sntp.o
 .bss.SNTPaddr  0x2000663c        0x4 ../common/ethernet/LMlwip/src/core/sntp.o
 .bss           0x20006640        0x0 ../common/ethernet/LMlwip/src/core/dhcp.o
 .bss           0x20006640        0x0 ../common/ethernet/LMlwip/src/core/dns.o
 .bss.dns_pcb   0x20006640        0x4 ../common/ethernet/LMlwip/src/core/dns.o
 .bss.dns_seqno
                0x20006644        0x1 ../common/ethernet/LMlwip/src/core/dns.o
 *fill*         0x20006645        0x3 00
 .bss.dns_table
                0x20006648      0x460 ../common/ethernet/LMlwip/src/core/dns.o
 .bss.dns_servers
                0x20006aa8        0x8 ../common/ethernet/LMlwip/src/core/dns.o
 .bss.dns_payload
                0x20006ab0      0x200 ../common/ethernet/LMlwip/src/core/dns.o
 .bss           0x20006cb0        0x0 ../common/ethernet/LMlwip/contrib/port/FreeRTOS/sys_arch.o
 .bss.s_nextthread
                0x20006cb0        0x2 ../common/ethernet/LMlwip/contrib/port/FreeRTOS/sys_arch.o
 *fill*         0x20006cb2        0x2 00
 .bss.s_timeoutlist
                0x20006cb4       0x20 ../common/ethernet/LMlwip/contrib/port/FreeRTOS/sys_arch.o
 .bss           0x20006cd4        0x0 ../common/ethernet/LMlwip/src/core/stats.o
 .bss           0x20006cd4        0x0 ../common/ethernet/LMlwip/src/core/netif.o
 .bss.netifnum.2201
                0x20006cd4        0x1 ../common/ethernet/LMlwip/src/core/netif.o
 .bss           0x20006cd5        0x0 ../common/ethernet/LMlwip/src/core/pbuf.o
 .bss           0x20006cd5        0x0 ../common/ethernet/LMlwip/src/core/ipv4/ip_frag.o
 .bss           0x20006cd5        0x0 ../common/ethernet/LMlwip/src/core/ipv4/autoip.o
 .bss           0x20006cd5        0x0 ../common/ethernet/LMlwip/src/core/ipv4/icmp.o
 .bss           0x20006cd5        0x0 ../common/ethernet/LMlwip/src/core/ipv4/igmp.o
 .bss           0x20006cd5        0x0 ../common/ethernet/LMlwip/src/core/ipv4/inet.o
 .bss.str.1410  0x20006cd5       0x10 ../common/ethernet/LMlwip/src/core/ipv4/inet.o
 .bss           0x20006ce5        0x0 ../common/ethernet/LMlwip/src/core/ipv4/inet_chksum.o
 .bss           0x20006ce5        0x0 ../common/ethernet/LMlwip/src/core/ipv4/ip.o
 *fill*         0x20006ce5        0x1 00
 .bss.ip_id.2426
                0x20006ce6        0x2 ../common/ethernet/LMlwip/src/core/ipv4/ip.o
 .bss           0x20006ce8        0x0 ../common/ethernet/LMlwip/src/core/ipv4/ip_addr.o
 .bss           0x20006ce8        0x0 ../common/ethernet/LMlwip/src/core/udp.o
 .bss           0x20006ce8        0x0 ../common/ethernet/LMlwip/src/core/tcp_out.o
 .bss           0x20006ce8        0x0 ../common/ethernet/LMlwip/src/core/tcp_in.o
 .bss.inseg     0x20006ce8       0x14 ../common/ethernet/LMlwip/src/core/tcp_in.o
 .bss.tcphdr    0x20006cfc        0x4 ../common/ethernet/LMlwip/src/core/tcp_in.o
 .bss.iphdr     0x20006d00        0x4 ../common/ethernet/LMlwip/src/core/tcp_in.o
 .bss.seqno     0x20006d04        0x4 ../common/ethernet/LMlwip/src/core/tcp_in.o
 .bss.ackno     0x20006d08        0x4 ../common/ethernet/LMlwip/src/core/tcp_in.o
 .bss.flags     0x20006d0c        0x1 ../common/ethernet/LMlwip/src/core/tcp_in.o
 *fill*         0x20006d0d        0x1 00
 .bss.tcplen    0x20006d0e        0x2 ../common/ethernet/LMlwip/src/core/tcp_in.o
 .bss.recv_flags
                0x20006d10        0x1 ../common/ethernet/LMlwip/src/core/tcp_in.o
 *fill*         0x20006d11        0x3 00
 .bss.recv_data
                0x20006d14        0x4 ../common/ethernet/LMlwip/src/core/tcp_in.o
 .bss           0x20006d18        0x0 ../common/ethernet/LMlwip/src/core/tcp.o
 .bss.tcp_timer
                0x20006d18        0x1 ../common/ethernet/LMlwip/src/core/tcp.o
 .bss           0x20006d19        0x0 ../common/ethernet/LMlwip/src/core/init.o
 .bss           0x20006d19        0x0 ../common/ethernet/LMlwip/src/core/mem.o
 .bss           0x20006d19        0x0 ../common/ethernet/LMlwip/src/core/raw.o
 *fill*         0x20006d19        0x3 00
 .bss.raw_pcbs  0x20006d1c        0x4 ../common/ethernet/LMlwip/src/core/raw.o
 .bss           0x20006d20        0x0 ../common/ethernet/LMlwip/src/core/memp.o
 .bss.memp_tab  0x20006d20       0x34 ../common/ethernet/LMlwip/src/core/memp.o
 .bss.memp_memory
                0x20006d54     0x4d3b ../common/ethernet/LMlwip/src/core/memp.o
 .bss           0x2000ba8f        0x0 ../common/ethernet/LMlwip/src/core/sys.o
 .bss           0x2000ba8f        0x0 ../common/ethernet/LMlwip/src/api/tcpip.o
 *fill*         0x2000ba8f        0x1 00
 .bss.mbox      0x2000ba90        0x4 ../common/ethernet/LMlwip/src/api/tcpip.o
 .bss.tcpip_init_done
                0x2000ba94        0x4 ../common/ethernet/LMlwip/src/api/tcpip.o
 .bss.tcpip_init_done_arg
                0x2000ba98        0x4 ../common/ethernet/LMlwip/src/api/tcpip.o
 .bss.tcpip_tcp_timer_active
                0x2000ba9c        0x4 ../common/ethernet/LMlwip/src/api/tcpip.o
 .bss           0x2000baa0        0x0 ../common/ethernet/LMlwip/src/api/api_msg.o
 .bss           0x2000baa0        0x0 ../common/ethernet/LMlwip/src/api/sockets.o
 .bss.sockets   0x2000baa0       0x50 ../common/ethernet/LMlwip/src/api/sockets.o
 .bss.select_cb_list
                0x2000baf0        0x4 ../common/ethernet/LMlwip/src/api/sockets.o
 .bss.socksem   0x2000baf4        0x4 ../common/ethernet/LMlwip/src/api/sockets.o
 .bss.selectsem
                0x2000baf8        0x4 ../common/ethernet/LMlwip/src/api/sockets.o
 .bss           0x2000bafc        0x0 ../common/ethernet/LMlwip/src/api/netbuf.o
 .bss           0x2000bafc        0x0 ../common/ethernet/LMlwip/src/api/api_lib.o
 .bss           0x2000bafc        0x0 ../common/ethernet/LMlwip/src/netif/etharp.o
 .bss.arp_table
                0x2000bafc       0xc8 ../common/ethernet/LMlwip/src/netif/etharp.o
 .bss.etharp_cached_entry
                0x2000bbc4        0x1 ../common/ethernet/LMlwip/src/netif/etharp.o
 .bss           0x2000bbc5        0x0 ../common/fatfs/ff.o
 *fill*         0x2000bbc5        0x3 00
 .bss.FatFs     0x2000bbc8        0x4 ../common/fatfs/ff.o
 .bss.Fsid      0x2000bbcc        0x2 ../common/fatfs/ff.o
 .bss           0x2000bbce        0x0 ../common/fatfs/mmc-ek-lm3s8962.o
 .bss.PowerFlag
                0x2000bbce        0x1 ../common/fatfs/mmc-ek-lm3s8962.o
 .bss.Timer1    0x2000bbcf        0x1 ../common/fatfs/mmc-ek-lm3s8962.o
 .bss.Timer2    0x2000bbd0        0x1 ../common/fatfs/mmc-ek-lm3s8962.o
 .bss.CardType  0x2000bbd1        0x1 ../common/fatfs/mmc-ek-lm3s8962.o
 .bss           0x2000bbd2        0x0 ../common/fatfs/SDcard.o
 *fill*         0x2000bbd2        0x2 00
 .bss.g_sFatFs  0x2000bbd4      0x230 ../common/fatfs/SDcard.o
 .bss.g_sDirObject
                0x2000be04       0x1c ../common/fatfs/SDcard.o
 .bss.g_sFileInfo
                0x2000be20       0x18 ../common/fatfs/SDcard.o
 .bss           0x2000be38        0x0 ethernet/ETHIsr.o
 .bss.ETHRxBinSemaphore
                0x2000be38        0x4 ethernet/ETHIsr.o
                0x2000be38                ETHRxBinSemaphore
 .bss.ETHTxBinSemaphore
                0x2000be3c        0x4 ethernet/ETHIsr.o
                0x2000be3c                ETHTxBinSemaphore
 .bss.ETHTxAccessMutex
                0x2000be40        0x4 ethernet/ETHIsr.o
                0x2000be40                ETHTxAccessMutex
 .bss.ETHRxAccessMutex
                0x2000be44        0x4 ethernet/ETHIsr.o
                0x2000be44                ETHRxAccessMutex
 .bss.xHigherPriorityTaskWoken.1835
                0x2000be48        0x4 ethernet/ETHIsr.o
 .bss.ETHDevice
                0x2000be4c        0x4 ethernet/ETHIsr.o
 .bss           0x2000be50        0x0 ethernet/LWIPStack.o
 .bss.lwip_netif
                0x2000be50       0x34 ethernet/LWIPStack.o
 .bss           0x2000be84        0x0 httpd/lmi_fs.o
 .bss           0x2000be84        0x0 httpd/httpd.o
 .bss.g_pfnSSIHandler
                0x2000be84        0x4 httpd/httpd.o
                0x2000be84                g_pfnSSIHandler
 .bss.g_iNumTags
                0x2000be88        0x4 httpd/httpd.o
                0x2000be88                g_iNumTags
 .bss.g_ppcTags
                0x2000be8c        0x4 httpd/httpd.o
                0x2000be8c                g_ppcTags
 .bss.g_pCGIs   0x2000be90        0x4 httpd/httpd.o
                0x2000be90                g_pCGIs
 .bss.g_iNumCGIs
                0x2000be94        0x4 httpd/httpd.o
                0x2000be94                g_iNumCGIs
 .bss           0x2000be98        0x0 httpd/cgifuncs.o
 .bss           0x2000be98        0x0 httpd/netbios.o
 .bss           0x2000be98        0x0 startup.o
 .bss.pulStack  0x2000be98      0x1e0 startup.o
 .bss           0x2000c078        0x0 ../common/drivers/LuminaryMicro/arm-none-eabi-gcc/libdriver.a(ethernet.o)
 .bss           0x2000c078        0x0 ../common/drivers/LuminaryMicro/arm-none-eabi-gcc/libdriver.a(flash.o)
 .bss           0x2000c078        0x0 ../common/drivers/LuminaryMicro/arm-none-eabi-gcc/libdriver.a(gpio.o)
 .bss           0x2000c078        0x0 ../common/drivers/LuminaryMicro/arm-none-eabi-gcc/libdriver.a(interrupt.o)
 .bss           0x2000c078        0x0 ../common/drivers/LuminaryMicro/arm-none-eabi-gcc/libdriver.a(ssi.o)
 .bss           0x2000c078        0x0 ../common/drivers/LuminaryMicro/arm-none-eabi-gcc/libdriver.a(sysctl.o)
 .bss           0x2000c078        0x0 ../common/drivers/LuminaryMicro/arm-none-eabi-gcc/libdriver.a(timer.o)
 .bss           0x2000c078        0x0 ../common/drivers/LuminaryMicro/arm-none-eabi-gcc/libdriver.a(cpu.o)
 .bss           0x2000c078        0x0 /home/anzinger/openocd/arm-2009q1/bin/../lib/gcc/arm-none-eabi/4.3.3/../../../../arm-none-eabi/lib/thumb2/libc.a(lib_a-ctime.o)
 .bss           0x2000c078        0x0 /home/anzinger/openocd/arm-2009q1/bin/../lib/gcc/arm-none-eabi/4.3.3/../../../../arm-none-eabi/lib/thumb2/libc.a(lib_a-lcltime.o)
 .bss           0x2000c078        0x0 /home/anzinger/openocd/arm-2009q1/bin/../lib/gcc/arm-none-eabi/4.3.3/../../../../arm-none-eabi/lib/thumb2/libc.a(lib_a-lcltime_r.o)
 .bss           0x2000c078        0x0 /home/anzinger/openocd/arm-2009q1/bin/../lib/gcc/arm-none-eabi/4.3.3/../../../../arm-none-eabi/lib/thumb2/libc.a(lib_a-malloc.o)
 .bss           0x2000c078       0x34 /home/anzinger/openocd/arm-2009q1/bin/../lib/gcc/arm-none-eabi/4.3.3/../../../../arm-none-eabi/lib/thumb2/libc.a(lib_a-mallocr.o)
                0x2000c078                __malloc_top_pad
                0x2000c0a4                __malloc_max_sbrked_mem
                0x2000c07c                __malloc_current_mallinfo
                0x2000c0a8                __malloc_max_total_mem
 .bss           0x2000c0ac        0x0 /home/anzinger/openocd/arm-2009q1/bin/../lib/gcc/arm-none-eabi/4.3.3/../../../../arm-none-eabi/lib/thumb2/libc.a(lib_a-memcmp.o)
 .bss           0x2000c0ac        0x0 /home/anzinger/openocd/arm-2009q1/bin/../lib/gcc/arm-none-eabi/4.3.3/../../../../arm-none-eabi/lib/thumb2/libc.a(lib_a-memcpy.o)
 .bss           0x2000c0ac        0x0 /home/anzinger/openocd/arm-2009q1/bin/../lib/gcc/arm-none-eabi/4.3.3/../../../../arm-none-eabi/lib/thumb2/libc.a(lib_a-memset.o)
 .bss           0x2000c0ac        0x0 /home/anzinger/openocd/arm-2009q1/bin/../lib/gcc/arm-none-eabi/4.3.3/../../../../arm-none-eabi/lib/thumb2/libc.a(lib_a-mktm_r.o)
 .bss           0x2000c0ac        0x0 /home/anzinger/openocd/arm-2009q1/bin/../lib/gcc/arm-none-eabi/4.3.3/../../../../arm-none-eabi/lib/thumb2/libc.a(lib_a-mlock.o)
 .bss           0x2000c0ac        0x0 /home/anzinger/openocd/arm-2009q1/bin/../lib/gcc/arm-none-eabi/4.3.3/../../../../arm-none-eabi/lib/thumb2/libc.a(lib_a-sbrkr.o)
 .bss           0x2000c0ac        0x0 /home/anzinger/openocd/arm-2009q1/bin/../lib/gcc/arm-none-eabi/4.3.3/../../../../arm-none-eabi/lib/thumb2/libc.a(lib_a-strcat.o)
 .bss           0x2000c0ac        0x0 /home/anzinger/openocd/arm-2009q1/bin/../lib/gcc/arm-none-eabi/4.3.3/../../../../arm-none-eabi/lib/thumb2/libc.a(lib_a-strchr.o)
 .bss           0x2000c0ac        0x0 /home/anzinger/openocd/arm-2009q1/bin/../lib/gcc/arm-none-eabi/4.3.3/../../../../arm-none-eabi/lib/thumb2/libc.a(lib_a-strcmp.o)
 .bss           0x2000c0ac        0x0 /home/anzinger/openocd/arm-2009q1/bin/../lib/gcc/arm-none-eabi/4.3.3/../../../../arm-none-eabi/lib/thumb2/libc.a(lib_a-strcpy.o)
 .bss           0x2000c0ac        0x0 /home/anzinger/openocd/arm-2009q1/bin/../lib/gcc/arm-none-eabi/4.3.3/../../../../arm-none-eabi/lib/thumb2/libc.a(lib_a-strlen.o)
 .bss           0x2000c0ac        0x0 /home/anzinger/openocd/arm-2009q1/bin/../lib/gcc/arm-none-eabi/4.3.3/../../../../arm-none-eabi/lib/thumb2/libc.a(lib_a-strncmp.o)
 .bss           0x2000c0ac        0x0 /home/anzinger/openocd/arm-2009q1/bin/../lib/gcc/arm-none-eabi/4.3.3/../../../../arm-none-eabi/lib/thumb2/libc.a(lib_a-strncpy.o)
 .bss           0x2000c0ac        0x0 /home/anzinger/openocd/arm-2009q1/bin/../lib/gcc/arm-none-eabi/4.3.3/../../../../arm-none-eabi/lib/thumb2/libc.a(lib_a-strstr.o)
 .bss           0x2000c0ac        0x0 /home/anzinger/openocd/arm-2009q1/bin/../lib/gcc/arm-none-eabi/4.3.3/../../../../arm-none-eabi/lib/thumb2/libc.a(lib_a-tzlock.o)
 .bss           0x2000c0ac        0x8 /home/anzinger/openocd/arm-2009q1/bin/../lib/gcc/arm-none-eabi/4.3.3/../../../../arm-none-eabi/lib/thumb2/libc.a(lib_a-tzvars.o)
                0x2000c0ac                _daylight
                0x2000c0b0                _timezone
 .bss           0x2000c0b4        0x0 /home/anzinger/openocd/arm-2009q1/bin/../lib/gcc/arm-none-eabi/4.3.3/../../../../arm-none-eabi/lib/thumb2/libc.a(lib_a-asctime.o)
 .bss           0x2000c0b4        0x0 /home/anzinger/openocd/arm-2009q1/bin/../lib/gcc/arm-none-eabi/4.3.3/../../../../arm-none-eabi/lib/thumb2/libc.a(lib_a-asctime_r.o)
 .bss           0x2000c0b4        0x0 /home/anzinger/openocd/arm-2009q1/bin/../lib/gcc/arm-none-eabi/4.3.3/../../../../arm-none-eabi/lib/thumb2/libc.a(lib_a-freer.o)
 .bss           0x2000c0b4        0x0 /home/anzinger/openocd/arm-2009q1/bin/../lib/gcc/arm-none-eabi/4.3.3/../../../../arm-none-eabi/lib/thumb2/libc.a(lib_a-gettzinfo.o)
 .bss           0x2000c0b4        0x0 /home/anzinger/openocd/arm-2009q1/bin/../lib/gcc/arm-none-eabi/4.3.3/../../../../arm-none-eabi/lib/thumb2/libc.a(lib_a-impure.o)
 .bss           0x2000c0b4        0x0 /home/anzinger/openocd/arm-2009q1/bin/../lib/gcc/arm-none-eabi/4.3.3/../../../../arm-none-eabi/lib/thumb2/libc.a(lib_a-memchr.o)
 .bss           0x2000c0b4        0x0 /home/anzinger/openocd/arm-2009q1/bin/../lib/gcc/arm-none-eabi/4.3.3/../../../../arm-none-eabi/lib/thumb2/libc.a(lib_a-reent.o)
 .bss           0x2000c0b4        0x0 /home/anzinger/openocd/arm-2009q1/bin/../lib/gcc/arm-none-eabi/4.3.3/../../../../arm-none-eabi/lib/thumb2/libc.a(lib_a-sprintf.o)
 .bss           0x2000c0b4        0x0 /home/anzinger/openocd/arm-2009q1/bin/../lib/gcc/arm-none-eabi/4.3.3/../../../../arm-none-eabi/lib/thumb2/libc.a(lib_a-svfprintf.o)
 .bss           0x2000c0b4        0x0 /home/anzinger/openocd/arm-2009q1/bin/../lib/gcc/arm-none-eabi/4.3.3/../../../../arm-none-eabi/lib/thumb2/libc.a(lib_a-dtoa.o)
 .bss           0x2000c0b4        0xc /home/anzinger/openocd/arm-2009q1/bin/../lib/gcc/arm-none-eabi/4.3.3/../../../../arm-none-eabi/lib/thumb2/libc.a(lib_a-locale.o)
                0x2000c0b4                __nlocale_changed
                0x2000c0b8                __mlocale_changed
                0x2000c0bc                _PathLocale
 .bss           0x2000c0c0        0x0 /home/anzinger/openocd/arm-2009q1/bin/../lib/gcc/arm-none-eabi/4.3.3/../../../../arm-none-eabi/lib/thumb2/libc.a(lib_a-memmove.o)
 .bss           0x2000c0c0        0x0 /home/anzinger/openocd/arm-2009q1/bin/../lib/gcc/arm-none-eabi/4.3.3/../../../../arm-none-eabi/lib/thumb2/libc.a(lib_a-mprec.o)
 .bss           0x2000c0c0        0x0 /home/anzinger/openocd/arm-2009q1/bin/../lib/gcc/arm-none-eabi/4.3.3/../../../../arm-none-eabi/lib/thumb2/libc.a(lib_a-reallocr.o)
 .bss           0x2000c0c0        0x0 /home/anzinger/openocd/arm-2009q1/bin/../lib/gcc/arm-none-eabi/4.3.3/../../../../arm-none-eabi/lib/thumb2/libc.a(lib_a-s_isinfd.o)
 .bss           0x2000c0c0        0x0 /home/anzinger/openocd/arm-2009q1/bin/../lib/gcc/arm-none-eabi/4.3.3/../../../../arm-none-eabi/lib/thumb2/libc.a(lib_a-s_isnand.o)
 .bss           0x2000c0c0        0x0 /home/anzinger/openocd/arm-2009q1/bin/../lib/gcc/arm-none-eabi/4.3.3/../../../../arm-none-eabi/lib/thumb2/libc.a(lib_a-callocr.o)
 .bss           0x2000c0c0        0x0 /home/anzinger/openocd/arm-2009q1/bin/../lib/gcc/arm-none-eabi/4.3.3/thumb2/libgcc.a(_udivsi3.o)
 .bss           0x2000c0c0        0x0 /home/anzinger/openocd/arm-2009q1/bin/../lib/gcc/arm-none-eabi/4.3.3/thumb2/libgcc.a(_dvmd_tls.o)
 .bss           0x2000c0c0        0x0 /home/anzinger/openocd/arm-2009q1/bin/../lib/gcc/arm-none-eabi/4.3.3/thumb2/libgcc.a(_arm_addsubdf3.o)
 .bss           0x2000c0c0        0x0 /home/anzinger/openocd/arm-2009q1/bin/../lib/gcc/arm-none-eabi/4.3.3/thumb2/libgcc.a(_arm_muldivdf3.o)
 .bss           0x2000c0c0        0x0 /home/anzinger/openocd/arm-2009q1/bin/../lib/gcc/arm-none-eabi/4.3.3/thumb2/libgcc.a(_arm_cmpdf2.o)
 .bss           0x2000c0c0        0x0 /home/anzinger/openocd/arm-2009q1/bin/../lib/gcc/arm-none-eabi/4.3.3/thumb2/libgcc.a(_arm_fixdfsi.o)
 .bss           0x2000c0c0        0x0 /home/anzinger/openocd/arm-2009q1/bin/../lib/gcc/arm-none-eabi/4.3.3/thumb2/libgcc.a(_aeabi_uldivmod.o)
 .bss           0x2000c0c0        0x0 /home/anzinger/openocd/arm-2009q1/bin/../lib/gcc/arm-none-eabi/4.3.3/thumb2/libgcc.a(bpabi.o)
 .bss           0x2000c0c0        0x0 /home/anzinger/openocd/arm-2009q1/bin/../lib/gcc/arm-none-eabi/4.3.3/thumb2/libgcc.a(_divdi3.o)
 .bss           0x2000c0c0        0x0 /home/anzinger/openocd/arm-2009q1/bin/../lib/gcc/arm-none-eabi/4.3.3/thumb2/libgcc.a(_udivdi3.o)
 .bss           0x2000c0c0        0x0 /home/anzinger/openocd/arm-2009q1/bin/../lib/gcc/arm-none-eabi/4.3.3/thumb2/libgcc.a(_clz.o)
 *(COMMON)
 COMMON         0x2000c0c0        0x4 main.o
                0x2000c0c0                t
 COMMON         0x2000c0c4       0x50 ../common/rtos/Source/queue.o
                0x2000c0c4                xQueueRegistry
 COMMON         0x2000c114        0x4 ../common/ethernet/LMlwip/src/core/sntp.o
                0x2000c114                sntpTaskHandle
 COMMON         0x2000c118        0x8 ../common/ethernet/LMlwip/src/core/netif.o
                0x2000c118                netif_list
                0x2000c11c                netif_default
 COMMON         0x2000c120        0x4 ../common/ethernet/LMlwip/src/core/udp.o
                0x2000c120                udp_pcbs
 COMMON         0x2000c124        0x4 ../common/ethernet/LMlwip/src/core/tcp_in.o
                0x2000c124                tcp_input_pcb
 COMMON         0x2000c128       0x18 ../common/ethernet/LMlwip/src/core/tcp.o
                0x2000c128                tcp_active_pcbs
                0x2000c12c                tcp_ticks
                0x2000c130                tcp_listen_pcbs
                0x2000c134                tcp_tmp_pcb
                0x2000c138                tcp_bound_pcbs
                0x2000c13c                tcp_tw_pcbs
 COMMON         0x2000c140        0x4 /home/anzinger/openocd/arm-2009q1/bin/../lib/gcc/arm-none-eabi/4.3.3/../../../../arm-none-eabi/lib/thumb2/libc.a(lib_a-reent.o)
                0x2000c140                errno
                0x2000c144                _ebss = .
OUTPUT(Luminary_Webinterface.axf elf32-littlearm)

.debug_abbrev   0x00000000     0x408c
 .debug_abbrev  0x00000000      0x13a main.o
 .debug_abbrev  0x0000013a       0x6a timertest.o
 .debug_abbrev  0x000001a4       0xfe ../common/drivers/LuminaryMicro/ustdlib.o
 .debug_abbrev  0x000002a2       0xca ../common/rtos/Source/list.o
 .debug_abbrev  0x0000036c      0x16f ../common/rtos/Source/queue.o
 .debug_abbrev  0x000004db      0x19d ../common/rtos/Source/tasks.o
 .debug_abbrev  0x00000678      0x11c ../common/rtos/Source/portable/GCC/ARM_CM3/port.o
 .debug_abbrev  0x00000794      0x167 ../common/rtos/Source/portable/MemMang/heap_2.o
 .debug_abbrev  0x000008fb      0x113 ../common/ethernet/LMlwip/src/core/sntp.o
 .debug_abbrev  0x00000a0e      0x1f2 ../common/ethernet/LMlwip/src/core/dhcp.o
 .debug_abbrev  0x00000c00      0x1d0 ../common/ethernet/LMlwip/src/core/dns.o
 .debug_abbrev  0x00000dd0      0x188 ../common/ethernet/LMlwip/contrib/port/FreeRTOS/sys_arch.o
 .debug_abbrev  0x00000f58       0x1f ../common/ethernet/LMlwip/src/core/stats.o
 .debug_abbrev  0x00000f77      0x20a ../common/ethernet/LMlwip/src/core/netif.o
 .debug_abbrev  0x00001181      0x167 ../common/ethernet/LMlwip/src/core/pbuf.o
 .debug_abbrev  0x000012e8       0x33 ../common/ethernet/LMlwip/src/core/ipv4/ip_frag.o
 .debug_abbrev  0x0000131b       0x1f ../common/ethernet/LMlwip/src/core/ipv4/autoip.o
 .debug_abbrev  0x0000133a      0x136 ../common/ethernet/LMlwip/src/core/ipv4/icmp.o
 .debug_abbrev  0x00001470       0x1f ../common/ethernet/LMlwip/src/core/ipv4/igmp.o
 .debug_abbrev  0x0000148f      0x106 ../common/ethernet/LMlwip/src/core/ipv4/inet.o
 .debug_abbrev  0x00001595      0x13e ../common/ethernet/LMlwip/src/core/ipv4/inet_chksum.o
 .debug_abbrev  0x000016d3      0x179 ../common/ethernet/LMlwip/src/core/ipv4/ip.o
 .debug_abbrev  0x0000184c       0xf2 ../common/ethernet/LMlwip/src/core/ipv4/ip_addr.o
 .debug_abbrev  0x0000193e      0x1d1 ../common/ethernet/LMlwip/src/core/udp.o
 .debug_abbrev  0x00001b0f      0x200 ../common/ethernet/LMlwip/src/core/tcp_out.o
 .debug_abbrev  0x00001d0f      0x1f6 ../common/ethernet/LMlwip/src/core/tcp_in.o
 .debug_abbrev  0x00001f05      0x272 ../common/ethernet/LMlwip/src/core/tcp.o
 .debug_abbrev  0x00002177       0x4a ../common/ethernet/LMlwip/src/core/init.o
 .debug_abbrev  0x000021c1       0x1f ../common/ethernet/LMlwip/src/core/mem.o
 .debug_abbrev  0x000021e0      0x19a ../common/ethernet/LMlwip/src/core/raw.o
 .debug_abbrev  0x0000237a      0x184 ../common/ethernet/LMlwip/src/core/memp.o
 .debug_abbrev  0x000024fe      0x175 ../common/ethernet/LMlwip/src/core/sys.o
 .debug_abbrev  0x00002673      0x214 ../common/ethernet/LMlwip/src/api/tcpip.o
 .debug_abbrev  0x00002887      0x23d ../common/ethernet/LMlwip/src/api/api_msg.o
 .debug_abbrev  0x00002ac4      0x245 ../common/ethernet/LMlwip/src/api/sockets.o
 .debug_abbrev  0x00002d09      0x115 ../common/ethernet/LMlwip/src/api/netbuf.o
 .debug_abbrev  0x00002e1e      0x1f4 ../common/ethernet/LMlwip/src/api/api_lib.o
 .debug_abbrev  0x00003012      0x20c ../common/ethernet/LMlwip/src/netif/etharp.o
 .debug_abbrev  0x0000321e      0x1e4 ../common/fatfs/ff.o
 .debug_abbrev  0x00003402      0x1b6 ../common/fatfs/mmc-ek-lm3s8962.o
 .debug_abbrev  0x000035b8      0x127 ../common/fatfs/SDcard.o
 .debug_abbrev  0x000036df      0x12b ethernet/ETHIsr.o
 .debug_abbrev  0x0000380a      0x1d4 ethernet/LWIPStack.o
 .debug_abbrev  0x000039de      0x190 httpd/lmi_fs.o
 .debug_abbrev  0x00003b6e      0x1c7 httpd/httpd.o
 .debug_abbrev  0x00003d35       0xc0 httpd/cgifuncs.o
 .debug_abbrev  0x00003df5      0x195 httpd/netbios.o
 .debug_abbrev  0x00003f8a      0x102 startup.o

.debug_info     0x00000000    0x17844
 .debug_info    0x00000000      0x3ad main.o
 .debug_info    0x000003ad       0xf6 timertest.o
 .debug_info    0x000004a3      0x267 ../common/drivers/LuminaryMicro/ustdlib.o
 .debug_info    0x0000070a      0x2b1 ../common/rtos/Source/list.o
 .debug_info    0x000009bb      0x905 ../common/rtos/Source/queue.o
 .debug_info    0x000012c0     0x10fd ../common/rtos/Source/tasks.o
 .debug_info    0x000023bd      0x1cf ../common/rtos/Source/portable/GCC/ARM_CM3/port.o
 .debug_info    0x0000258c      0x2be ../common/rtos/Source/portable/MemMang/heap_2.o
 .debug_info    0x0000284a      0x32f ../common/ethernet/LMlwip/src/core/sntp.o
 .debug_info    0x00002b79     0x1066 ../common/ethernet/LMlwip/src/core/dhcp.o
 .debug_info    0x00003bdf      0x926 ../common/ethernet/LMlwip/src/core/dns.o
 .debug_info    0x00004505      0x603 ../common/ethernet/LMlwip/contrib/port/FreeRTOS/sys_arch.o
 .debug_info    0x00004b08       0x50 ../common/ethernet/LMlwip/src/core/stats.o
 .debug_info    0x00004b58      0xbd4 ../common/ethernet/LMlwip/src/core/netif.o
 .debug_info    0x0000572c      0x5f0 ../common/ethernet/LMlwip/src/core/pbuf.o
 .debug_info    0x00005d1c       0x76 ../common/ethernet/LMlwip/src/core/ipv4/ip_frag.o
 .debug_info    0x00005d92       0x50 ../common/ethernet/LMlwip/src/core/ipv4/autoip.o
 .debug_info    0x00005de2      0x553 ../common/ethernet/LMlwip/src/core/ipv4/icmp.o
 .debug_info    0x00006335       0x50 ../common/ethernet/LMlwip/src/core/ipv4/igmp.o
 .debug_info    0x00006385      0x2f6 ../common/ethernet/LMlwip/src/core/ipv4/inet.o
 .debug_info    0x0000667b      0x37f ../common/ethernet/LMlwip/src/core/ipv4/inet_chksum.o
 .debug_info    0x000069fa      0x91f ../common/ethernet/LMlwip/src/core/ipv4/ip.o
 .debug_info    0x00007319      0x308 ../common/ethernet/LMlwip/src/core/ipv4/ip_addr.o
 .debug_info    0x00007621      0xb8e ../common/ethernet/LMlwip/src/core/udp.o
 .debug_info    0x000081af      0xc81 ../common/ethernet/LMlwip/src/core/tcp_out.o
 .debug_info    0x00008e30      0xd26 ../common/ethernet/LMlwip/src/core/tcp_in.o
 .debug_info    0x00009b56     0x121d ../common/ethernet/LMlwip/src/core/tcp.o
 .debug_info    0x0000ad73       0x81 ../common/ethernet/LMlwip/src/core/init.o
 .debug_info    0x0000adf4       0x50 ../common/ethernet/LMlwip/src/core/mem.o
 .debug_info    0x0000ae44      0x706 ../common/ethernet/LMlwip/src/core/raw.o
 .debug_info    0x0000b54a      0x401 ../common/ethernet/LMlwip/src/core/memp.o
 .debug_info    0x0000b94b      0x449 ../common/ethernet/LMlwip/src/core/sys.o
 .debug_info    0x0000bd94     0x136a ../common/ethernet/LMlwip/src/api/tcpip.o
 .debug_info    0x0000d0fe     0x1467 ../common/ethernet/LMlwip/src/api/api_msg.o
 .debug_info    0x0000e565     0x1b06 ../common/ethernet/LMlwip/src/api/sockets.o
 .debug_info    0x0001006b      0x3f0 ../common/ethernet/LMlwip/src/api/netbuf.o
 .debug_info    0x0001045b     0x1157 ../common/ethernet/LMlwip/src/api/api_lib.o
 .debug_info    0x000115b2      0xf9d ../common/ethernet/LMlwip/src/netif/etharp.o
 .debug_info    0x0001254f     0x16d1 ../common/fatfs/ff.o
 .debug_info    0x00013c20      0x603 ../common/fatfs/mmc-ek-lm3s8962.o
 .debug_info    0x00014223      0x462 ../common/fatfs/SDcard.o
 .debug_info    0x00014685      0x438 ethernet/ETHIsr.o
 .debug_info    0x00014abd      0xa88 ethernet/LWIPStack.o
 .debug_info    0x00015545      0x8d0 httpd/lmi_fs.o
 .debug_info    0x00015e15      0xe20 httpd/httpd.o
 .debug_info    0x00016c35      0x38c httpd/cgifuncs.o
 .debug_info    0x00016fc1      0x708 httpd/netbios.o
 .debug_info    0x000176c9      0x17b startup.o

.debug_line     0x00000000     0x6c4c
 .debug_line    0x00000000      0x23a main.o
 .debug_line    0x0000023a       0x64 timertest.o
 .debug_line    0x0000029e      0x15f ../common/drivers/LuminaryMicro/ustdlib.o
 .debug_line    0x000003fd      0x12b ../common/rtos/Source/list.o
 .debug_line    0x00000528      0x370 ../common/rtos/Source/queue.o
 .debug_line    0x00000898      0x549 ../common/rtos/Source/tasks.o
 .debug_line    0x00000de1      0x157 ../common/rtos/Source/portable/GCC/ARM_CM3/port.o
 .debug_line    0x00000f38      0x116 ../common/rtos/Source/portable/MemMang/heap_2.o
 .debug_line    0x0000104e      0x21f ../common/ethernet/LMlwip/src/core/sntp.o
 .debug_line    0x0000126d      0x57d ../common/ethernet/LMlwip/src/core/dhcp.o
 .debug_line    0x000017ea      0x2bb ../common/ethernet/LMlwip/src/core/dns.o
 .debug_line    0x00001aa5      0x2d5 ../common/ethernet/LMlwip/contrib/port/FreeRTOS/sys_arch.o
 .debug_line    0x00001d7a       0x1d ../common/ethernet/LMlwip/src/core/stats.o
 .debug_line    0x00001d97      0x22e ../common/ethernet/LMlwip/src/core/netif.o
 .debug_line    0x00001fc5      0x260 ../common/ethernet/LMlwip/src/core/pbuf.o
 .debug_line    0x00002225       0x1d ../common/ethernet/LMlwip/src/core/ipv4/ip_frag.o
 .debug_line    0x00002242       0x1d ../common/ethernet/LMlwip/src/core/ipv4/autoip.o
 .debug_line    0x0000225f      0x199 ../common/ethernet/LMlwip/src/core/ipv4/icmp.o
 .debug_line    0x000023f8       0x1d ../common/ethernet/LMlwip/src/core/ipv4/igmp.o
 .debug_line    0x00002415      0x18e ../common/ethernet/LMlwip/src/core/ipv4/inet.o
 .debug_line    0x000025a3      0x1c6 ../common/ethernet/LMlwip/src/core/ipv4/inet_chksum.o
 .debug_line    0x00002769      0x201 ../common/ethernet/LMlwip/src/core/ipv4/ip.o
 .debug_line    0x0000296a      0x137 ../common/ethernet/LMlwip/src/core/ipv4/ip_addr.o
 .debug_line    0x00002aa1      0x2a5 ../common/ethernet/LMlwip/src/core/udp.o
 .debug_line    0x00002d46      0x348 ../common/ethernet/LMlwip/src/core/tcp_out.o
 .debug_line    0x0000308e      0x3f1 ../common/ethernet/LMlwip/src/core/tcp_in.o
 .debug_line    0x0000347f      0x4bf ../common/ethernet/LMlwip/src/core/tcp.o
 .debug_line    0x0000393e       0x61 ../common/ethernet/LMlwip/src/core/init.o
 .debug_line    0x0000399f       0x1d ../common/ethernet/LMlwip/src/core/mem.o
 .debug_line    0x000039bc      0x1f8 ../common/ethernet/LMlwip/src/core/raw.o
 .debug_line    0x00003bb4      0x192 ../common/ethernet/LMlwip/src/core/memp.o
 .debug_line    0x00003d46      0x1e4 ../common/ethernet/LMlwip/src/core/sys.o
 .debug_line    0x00003f2a      0x2dd ../common/ethernet/LMlwip/src/api/tcpip.o
 .debug_line    0x00004207      0x4bf ../common/ethernet/LMlwip/src/api/api_msg.o
 .debug_line    0x000046c6      0x5c0 ../common/ethernet/LMlwip/src/api/sockets.o
 .debug_line    0x00004c86      0x1b2 ../common/ethernet/LMlwip/src/api/netbuf.o
 .debug_line    0x00004e38      0x32e ../common/ethernet/LMlwip/src/api/api_lib.o
 .debug_line    0x00005166      0x3a6 ../common/ethernet/LMlwip/src/netif/etharp.o
 .debug_line    0x0000550c      0x6d7 ../common/fatfs/ff.o
 .debug_line    0x00005be3      0x298 ../common/fatfs/mmc-ek-lm3s8962.o
 .debug_line    0x00005e7b       0xc4 ../common/fatfs/SDcard.o
 .debug_line    0x00005f3f      0x1f6 ethernet/ETHIsr.o
 .debug_line    0x00006135      0x2eb ethernet/LWIPStack.o
 .debug_line    0x00006420      0x151 httpd/lmi_fs.o
 .debug_line    0x00006571      0x364 httpd/httpd.o
 .debug_line    0x000068d5      0x156 httpd/cgifuncs.o
 .debug_line    0x00006a2b      0x199 httpd/netbios.o
 .debug_line    0x00006bc4       0x88 startup.o

.debug_frame    0x00000000     0x4ab8
 .debug_frame   0x00000000      0x19c main.o
 .debug_frame   0x0000019c       0x50 timertest.o
 .debug_frame   0x000001ec       0x7c ../common/drivers/LuminaryMicro/ustdlib.o
 .debug_frame   0x00000268       0x9c ../common/rtos/Source/list.o
 .debug_frame   0x00000304      0x29c ../common/rtos/Source/queue.o
 .debug_frame   0x000005a0      0x4e8 ../common/rtos/Source/tasks.o
 .debug_frame   0x00000a88      0x110 ../common/rtos/Source/portable/GCC/ARM_CM3/port.o
 .debug_frame   0x00000b98       0x80 ../common/rtos/Source/portable/MemMang/heap_2.o
 .debug_frame   0x00000c18       0xb4 ../common/ethernet/LMlwip/src/core/sntp.o
 .debug_frame   0x00000ccc      0x42c ../common/ethernet/LMlwip/src/core/dhcp.o
 .debug_frame   0x000010f8      0x1a4 ../common/ethernet/LMlwip/src/core/dns.o
 .debug_frame   0x0000129c      0x208 ../common/ethernet/LMlwip/contrib/port/FreeRTOS/sys_arch.o
 .debug_frame   0x000014a4      0x158 ../common/ethernet/LMlwip/src/core/netif.o
 .debug_frame   0x000015fc      0x164 ../common/ethernet/LMlwip/src/core/pbuf.o
 .debug_frame   0x00001760       0x50 ../common/ethernet/LMlwip/src/core/ipv4/icmp.o
 .debug_frame   0x000017b0       0xe4 ../common/ethernet/LMlwip/src/core/ipv4/inet.o
 .debug_frame   0x00001894       0xb0 ../common/ethernet/LMlwip/src/core/ipv4/inet_chksum.o
 .debug_frame   0x00001944       0x90 ../common/ethernet/LMlwip/src/core/ipv4/ip.o
 .debug_frame   0x000019d4       0x2c ../common/ethernet/LMlwip/src/core/ipv4/ip_addr.o
 .debug_frame   0x00001a00      0x148 ../common/ethernet/LMlwip/src/core/udp.o
 .debug_frame   0x00001b48      0x160 ../common/ethernet/LMlwip/src/core/tcp_out.o
 .debug_frame   0x00001ca8       0xdc ../common/ethernet/LMlwip/src/core/tcp_in.o
 .debug_frame   0x00001d84      0x39c ../common/ethernet/LMlwip/src/core/tcp.o
 .debug_frame   0x00002120       0x2c ../common/ethernet/LMlwip/src/core/init.o
 .debug_frame   0x0000214c      0x104 ../common/ethernet/LMlwip/src/core/raw.o
 .debug_frame   0x00002250       0xe8 ../common/ethernet/LMlwip/src/core/memp.o
 .debug_frame   0x00002338       0xf0 ../common/ethernet/LMlwip/src/core/sys.o
 .debug_frame   0x00002428      0x18c ../common/ethernet/LMlwip/src/api/tcpip.o
 .debug_frame   0x000025b4      0x374 ../common/ethernet/LMlwip/src/api/api_msg.o
 .debug_frame   0x00002928      0x368 ../common/ethernet/LMlwip/src/api/sockets.o
 .debug_frame   0x00002c90      0x124 ../common/ethernet/LMlwip/src/api/netbuf.o
 .debug_frame   0x00002db4      0x1ec ../common/ethernet/LMlwip/src/api/api_lib.o
 .debug_frame   0x00002fa0      0x1b0 ../common/ethernet/LMlwip/src/netif/etharp.o
 .debug_frame   0x00003150      0x4f4 ../common/fatfs/ff.o
 .debug_frame   0x00003644      0x288 ../common/fatfs/mmc-ek-lm3s8962.o
 .debug_frame   0x000038cc       0x58 ../common/fatfs/SDcard.o
 .debug_frame   0x00003924      0x164 ethernet/ETHIsr.o
 .debug_frame   0x00003a88      0x154 ethernet/LWIPStack.o
 .debug_frame   0x00003bdc       0x70 httpd/lmi_fs.o
 .debug_frame   0x00003c4c      0x1a8 httpd/httpd.o
 .debug_frame   0x00003df4      0x104 httpd/cgifuncs.o
 .debug_frame   0x00003ef8       0x88 httpd/netbios.o
 .debug_frame   0x00003f80       0x74 startup.o
 .debug_frame   0x00003ff4       0x28 /home/anzinger/openocd/arm-2009q1/bin/../lib/gcc/arm-none-eabi/4.3.3/../../../../arm-none-eabi/lib/thumb2/libc.a(lib_a-ctime.o)
 .debug_frame   0x0000401c       0x2c /home/anzinger/openocd/arm-2009q1/bin/../lib/gcc/arm-none-eabi/4.3.3/../../../../arm-none-eabi/lib/thumb2/libc.a(lib_a-lcltime.o)
 .debug_frame   0x00004048       0x28 /home/anzinger/openocd/arm-2009q1/bin/../lib/gcc/arm-none-eabi/4.3.3/../../../../arm-none-eabi/lib/thumb2/libc.a(lib_a-lcltime_r.o)
 .debug_frame   0x00004070       0x40 /home/anzinger/openocd/arm-2009q1/bin/../lib/gcc/arm-none-eabi/4.3.3/../../../../arm-none-eabi/lib/thumb2/libc.a(lib_a-malloc.o)
 .debug_frame   0x000040b0       0x38 /home/anzinger/openocd/arm-2009q1/bin/../lib/gcc/arm-none-eabi/4.3.3/../../../../arm-none-eabi/lib/thumb2/libc.a(lib_a-mallocr.o)
 .debug_frame   0x000040e8       0x2c /home/anzinger/openocd/arm-2009q1/bin/../lib/gcc/arm-none-eabi/4.3.3/../../../../arm-none-eabi/lib/thumb2/libc.a(lib_a-memcmp.o)
 .debug_frame   0x00004114       0x30 /home/anzinger/openocd/arm-2009q1/bin/../lib/gcc/arm-none-eabi/4.3.3/../../../../arm-none-eabi/lib/thumb2/libc.a(lib_a-memcpy.o)
 .debug_frame   0x00004144       0x28 /home/anzinger/openocd/arm-2009q1/bin/../lib/gcc/arm-none-eabi/4.3.3/../../../../arm-none-eabi/lib/thumb2/libc.a(lib_a-memset.o)
 .debug_frame   0x0000416c       0x5c /home/anzinger/openocd/arm-2009q1/bin/../lib/gcc/arm-none-eabi/4.3.3/../../../../arm-none-eabi/lib/thumb2/libc.a(lib_a-mktm_r.o)
 .debug_frame   0x000041c8       0x30 /home/anzinger/openocd/arm-2009q1/bin/../lib/gcc/arm-none-eabi/4.3.3/../../../../arm-none-eabi/lib/thumb2/libc.a(lib_a-mlock.o)
 .debug_frame   0x000041f8       0x2c /home/anzinger/openocd/arm-2009q1/bin/../lib/gcc/arm-none-eabi/4.3.3/../../../../arm-none-eabi/lib/thumb2/libc.a(lib_a-sbrkr.o)
 .debug_frame   0x00004224       0x28 /home/anzinger/openocd/arm-2009q1/bin/../lib/gcc/arm-none-eabi/4.3.3/../../../../arm-none-eabi/lib/thumb2/libc.a(lib_a-strcat.o)
 .debug_frame   0x0000424c       0x20 /home/anzinger/openocd/arm-2009q1/bin/../lib/gcc/arm-none-eabi/4.3.3/../../../../arm-none-eabi/lib/thumb2/libc.a(lib_a-strchr.o)
 .debug_frame   0x0000426c       0x30 /home/anzinger/openocd/arm-2009q1/bin/../lib/gcc/arm-none-eabi/4.3.3/../../../../arm-none-eabi/lib/thumb2/libc.a(lib_a-strcmp.o)
 .debug_frame   0x0000429c       0x20 /home/anzinger/openocd/arm-2009q1/bin/../lib/gcc/arm-none-eabi/4.3.3/../../../../arm-none-eabi/lib/thumb2/libc.a(lib_a-strcpy.o)
 .debug_frame   0x000042bc       0x20 /home/anzinger/openocd/arm-2009q1/bin/../lib/gcc/arm-none-eabi/4.3.3/../../../../arm-none-eabi/lib/thumb2/libc.a(lib_a-strlen.o)
 .debug_frame   0x000042dc       0x2c /home/anzinger/openocd/arm-2009q1/bin/../lib/gcc/arm-none-eabi/4.3.3/../../../../arm-none-eabi/lib/thumb2/libc.a(lib_a-strncmp.o)
 .debug_frame   0x00004308       0x28 /home/anzinger/openocd/arm-2009q1/bin/../lib/gcc/arm-none-eabi/4.3.3/../../../../arm-none-eabi/lib/thumb2/libc.a(lib_a-strncpy.o)
 .debug_frame   0x00004330       0x8c /home/anzinger/openocd/arm-2009q1/bin/../lib/gcc/arm-none-eabi/4.3.3/../../../../arm-none-eabi/lib/thumb2/libc.a(lib_a-strstr.o)
 .debug_frame   0x000043bc       0x30 /home/anzinger/openocd/arm-2009q1/bin/../lib/gcc/arm-none-eabi/4.3.3/../../../../arm-none-eabi/lib/thumb2/libc.a(lib_a-tzlock.o)
 .debug_frame   0x000043ec       0x30 /home/anzinger/openocd/arm-2009q1/bin/../lib/gcc/arm-none-eabi/4.3.3/../../../../arm-none-eabi/lib/thumb2/libc.a(lib_a-asctime.o)
 .debug_frame   0x0000441c       0x30 /home/anzinger/openocd/arm-2009q1/bin/../lib/gcc/arm-none-eabi/4.3.3/../../../../arm-none-eabi/lib/thumb2/libc.a(lib_a-asctime_r.o)
 .debug_frame   0x0000444c       0x50 /home/anzinger/openocd/arm-2009q1/bin/../lib/gcc/arm-none-eabi/4.3.3/../../../../arm-none-eabi/lib/thumb2/libc.a(lib_a-freer.o)
 .debug_frame   0x0000449c       0x20 /home/anzinger/openocd/arm-2009q1/bin/../lib/gcc/arm-none-eabi/4.3.3/../../../../arm-none-eabi/lib/thumb2/libc.a(lib_a-gettzinfo.o)
 .debug_frame   0x000044bc       0x28 /home/anzinger/openocd/arm-2009q1/bin/../lib/gcc/arm-none-eabi/4.3.3/../../../../arm-none-eabi/lib/thumb2/libc.a(lib_a-memchr.o)
 .debug_frame   0x000044e4       0x64 /home/anzinger/openocd/arm-2009q1/bin/../lib/gcc/arm-none-eabi/4.3.3/../../../../arm-none-eabi/lib/thumb2/libc.a(lib_a-reent.o)
 .debug_frame   0x00004548       0x58 /home/anzinger/openocd/arm-2009q1/bin/../lib/gcc/arm-none-eabi/4.3.3/../../../../arm-none-eabi/lib/thumb2/libc.a(lib_a-sprintf.o)
 .debug_frame   0x000045a0       0x64 /home/anzinger/openocd/arm-2009q1/bin/../lib/gcc/arm-none-eabi/4.3.3/../../../../arm-none-eabi/lib/thumb2/libc.a(lib_a-svfprintf.o)
 .debug_frame   0x00004604       0x64 /home/anzinger/openocd/arm-2009q1/bin/../lib/gcc/arm-none-eabi/4.3.3/../../../../arm-none-eabi/lib/thumb2/libc.a(lib_a-dtoa.o)
 .debug_frame   0x00004668       0x74 /home/anzinger/openocd/arm-2009q1/bin/../lib/gcc/arm-none-eabi/4.3.3/../../../../arm-none-eabi/lib/thumb2/libc.a(lib_a-locale.o)
 .debug_frame   0x000046dc       0x2c /home/anzinger/openocd/arm-2009q1/bin/../lib/gcc/arm-none-eabi/4.3.3/../../../../arm-none-eabi/lib/thumb2/libc.a(lib_a-memmove.o)
 .debug_frame   0x00004708      0x228 /home/anzinger/openocd/arm-2009q1/bin/../lib/gcc/arm-none-eabi/4.3.3/../../../../arm-none-eabi/lib/thumb2/libc.a(lib_a-mprec.o)
 .debug_frame   0x00004930       0x38 /home/anzinger/openocd/arm-2009q1/bin/../lib/gcc/arm-none-eabi/4.3.3/../../../../arm-none-eabi/lib/thumb2/libc.a(lib_a-reallocr.o)
 .debug_frame   0x00004968       0x28 /home/anzinger/openocd/arm-2009q1/bin/../lib/gcc/arm-none-eabi/4.3.3/../../../../arm-none-eabi/lib/thumb2/libc.a(lib_a-s_isinfd.o)
 .debug_frame   0x00004990       0x20 /home/anzinger/openocd/arm-2009q1/bin/../lib/gcc/arm-none-eabi/4.3.3/../../../../arm-none-eabi/lib/thumb2/libc.a(lib_a-s_isnand.o)
 .debug_frame   0x000049b0       0x28 /home/anzinger/openocd/arm-2009q1/bin/../lib/gcc/arm-none-eabi/4.3.3/../../../../arm-none-eabi/lib/thumb2/libc.a(lib_a-callocr.o)
 .debug_frame   0x000049d8       0x20 /home/anzinger/openocd/arm-2009q1/bin/../lib/gcc/arm-none-eabi/4.3.3/thumb2/libgcc.a(_udivsi3.o)
 .debug_frame   0x000049f8       0x50 /home/anzinger/openocd/arm-2009q1/bin/../lib/gcc/arm-none-eabi/4.3.3/thumb2/libgcc.a(bpabi.o)
 .debug_frame   0x00004a48       0x38 /home/anzinger/openocd/arm-2009q1/bin/../lib/gcc/arm-none-eabi/4.3.3/thumb2/libgcc.a(_divdi3.o)
 .debug_frame   0x00004a80       0x38 /home/anzinger/openocd/arm-2009q1/bin/../lib/gcc/arm-none-eabi/4.3.3/thumb2/libgcc.a(_udivdi3.o)

.debug_loc      0x00000000     0x6a8b
 .debug_loc     0x00000000      0x29b main.o
 .debug_loc     0x0000029b       0x6e timertest.o
 .debug_loc     0x00000309       0xbd ../common/drivers/LuminaryMicro/ustdlib.o
 .debug_loc     0x000003c6      0x113 ../common/rtos/Source/list.o
 .debug_loc     0x000004d9      0x483 ../common/rtos/Source/queue.o
 .debug_loc     0x0000095c      0x86a ../common/rtos/Source/tasks.o
 .debug_loc     0x000011c6      0x170 ../common/rtos/Source/portable/GCC/ARM_CM3/port.o
 .debug_loc     0x00001336       0xc4 ../common/rtos/Source/portable/MemMang/heap_2.o
 .debug_loc     0x000013fa      0x115 ../common/ethernet/LMlwip/src/core/sntp.o
 .debug_loc     0x0000150f      0x74e ../common/ethernet/LMlwip/src/core/dhcp.o
 .debug_loc     0x00001c5d      0x2c3 ../common/ethernet/LMlwip/src/core/dns.o
 .debug_loc     0x00001f20      0x365 ../common/ethernet/LMlwip/contrib/port/FreeRTOS/sys_arch.o
 .debug_loc     0x00002285      0x25d ../common/ethernet/LMlwip/src/core/netif.o
 .debug_loc     0x000024e2      0x25d ../common/ethernet/LMlwip/src/core/pbuf.o
 .debug_loc     0x0000273f       0x6f ../common/ethernet/LMlwip/src/core/ipv4/icmp.o
 .debug_loc     0x000027ae      0x183 ../common/ethernet/LMlwip/src/core/ipv4/inet.o
 .debug_loc     0x00002931      0x113 ../common/ethernet/LMlwip/src/core/ipv4/inet_chksum.o
 .debug_loc     0x00002a44       0xdd ../common/ethernet/LMlwip/src/core/ipv4/ip.o
 .debug_loc     0x00002b21       0x37 ../common/ethernet/LMlwip/src/core/ipv4/ip_addr.o
 .debug_loc     0x00002b58      0x228 ../common/ethernet/LMlwip/src/core/udp.o
 .debug_loc     0x00002d80      0x22a ../common/ethernet/LMlwip/src/core/tcp_out.o
 .debug_loc     0x00002faa      0x14f ../common/ethernet/LMlwip/src/core/tcp_in.o
 .debug_loc     0x000030f9      0x651 ../common/ethernet/LMlwip/src/core/tcp.o
 .debug_loc     0x0000374a       0x2b ../common/ethernet/LMlwip/src/core/init.o
 .debug_loc     0x00003775      0x1b9 ../common/ethernet/LMlwip/src/core/raw.o
 .debug_loc     0x0000392e      0x181 ../common/ethernet/LMlwip/src/core/memp.o
 .debug_loc     0x00003aaf      0x181 ../common/ethernet/LMlwip/src/core/sys.o
 .debug_loc     0x00003c30      0x288 ../common/ethernet/LMlwip/src/api/tcpip.o
 .debug_loc     0x00003eb8      0x5cd ../common/ethernet/LMlwip/src/api/api_msg.o
 .debug_loc     0x00004485      0x5d2 ../common/ethernet/LMlwip/src/api/sockets.o
 .debug_loc     0x00004a57      0x1ef ../common/ethernet/LMlwip/src/api/netbuf.o
 .debug_loc     0x00004c46      0x339 ../common/ethernet/LMlwip/src/api/api_lib.o
 .debug_loc     0x00004f7f      0x2cb ../common/ethernet/LMlwip/src/netif/etharp.o
 .debug_loc     0x0000524a      0x8aa ../common/fatfs/ff.o
 .debug_loc     0x00005af4      0x449 ../common/fatfs/mmc-ek-lm3s8962.o
 .debug_loc     0x00005f3d       0x70 ../common/fatfs/SDcard.o
 .debug_loc     0x00005fad      0x25d ethernet/ETHIsr.o
 .debug_loc     0x0000620a      0x228 ethernet/LWIPStack.o
 .debug_loc     0x00006432       0xa5 httpd/lmi_fs.o
 .debug_loc     0x000064d7      0x2cd httpd/httpd.o
 .debug_loc     0x000067a4      0x1b8 httpd/cgifuncs.o
 .debug_loc     0x0000695c       0xde httpd/netbios.o
 .debug_loc     0x00006a3a       0x51 startup.o

.debug_pubnames
                0x00000000     0x201d
 .debug_pubnames
                0x00000000      0x116 main.o
 .debug_pubnames
                0x00000116       0x72 timertest.o
 .debug_pubnames
                0x00000188       0x3c ../common/drivers/LuminaryMicro/ustdlib.o
 .debug_pubnames
                0x000001c4       0x71 ../common/rtos/Source/list.o
 .debug_pubnames
                0x00000235      0x1ae ../common/rtos/Source/queue.o
 .debug_pubnames
                0x000003e3      0x2dc ../common/rtos/Source/tasks.o
 .debug_pubnames
                0x000006bf      0x10d ../common/rtos/Source/portable/GCC/ARM_CM3/port.o
 .debug_pubnames
                0x000007cc       0x64 ../common/rtos/Source/portable/MemMang/heap_2.o
 .debug_pubnames
                0x00000830       0x33 ../common/ethernet/LMlwip/src/core/sntp.o
 .debug_pubnames
                0x00000863       0x98 ../common/ethernet/LMlwip/src/core/dhcp.o
 .debug_pubnames
                0x000008fb       0x65 ../common/ethernet/LMlwip/src/core/dns.o
 .debug_pubnames
                0x00000960      0x14a ../common/ethernet/LMlwip/contrib/port/FreeRTOS/sys_arch.o
 .debug_pubnames
                0x00000aaa       0xfa ../common/ethernet/LMlwip/src/core/netif.o
 .debug_pubnames
                0x00000ba4       0xbc ../common/ethernet/LMlwip/src/core/pbuf.o
 .debug_pubnames
                0x00000c60       0x37 ../common/ethernet/LMlwip/src/core/ipv4/icmp.o
 .debug_pubnames
                0x00000c97       0x64 ../common/ethernet/LMlwip/src/core/ipv4/inet.o
 .debug_pubnames
                0x00000cfb       0x6d ../common/ethernet/LMlwip/src/core/ipv4/inet_chksum.o
 .debug_pubnames
                0x00000d68       0x4b ../common/ethernet/LMlwip/src/core/ipv4/ip.o
 .debug_pubnames
                0x00000db3       0x50 ../common/ethernet/LMlwip/src/core/ipv4/ip_addr.o
 .debug_pubnames
                0x00000e03       0xb3 ../common/ethernet/LMlwip/src/core/udp.o
 .debug_pubnames
                0x00000eb6       0xab ../common/ethernet/LMlwip/src/core/tcp_out.o
 .debug_pubnames
                0x00000f61       0x32 ../common/ethernet/LMlwip/src/core/tcp_in.o
 .debug_pubnames
                0x00000f93      0x22a ../common/ethernet/LMlwip/src/core/tcp.o
 .debug_pubnames
                0x000011bd       0x20 ../common/ethernet/LMlwip/src/core/init.o
 .debug_pubnames
                0x000011dd       0x81 ../common/ethernet/LMlwip/src/core/raw.o
 .debug_pubnames
                0x0000125e       0x41 ../common/ethernet/LMlwip/src/core/memp.o
 .debug_pubnames
                0x0000129f       0x80 ../common/ethernet/LMlwip/src/core/sys.o
 .debug_pubnames
                0x0000131f       0x87 ../common/ethernet/LMlwip/src/api/tcpip.o
 .debug_pubnames
                0x000013a6       0xe4 ../common/ethernet/LMlwip/src/api/api_msg.o
 .debug_pubnames
                0x0000148a      0x163 ../common/ethernet/LMlwip/src/api/sockets.o
 .debug_pubnames
                0x000015ed       0xa5 ../common/ethernet/LMlwip/src/api/netbuf.o
 .debug_pubnames
                0x00001692      0x154 ../common/ethernet/LMlwip/src/api/api_lib.o
 .debug_pubnames
                0x000017e6       0xc5 ../common/ethernet/LMlwip/src/netif/etharp.o
 .debug_pubnames
                0x000018ab       0xe5 ../common/fatfs/ff.o
 .debug_pubnames
                0x00001990       0x85 ../common/fatfs/mmc-ek-lm3s8962.o
 .debug_pubnames
                0x00001a15       0x2d ../common/fatfs/SDcard.o
 .debug_pubnames
                0x00001a42      0x18d ethernet/ETHIsr.o
 .debug_pubnames
                0x00001bcf       0x93 ethernet/LWIPStack.o
 .debug_pubnames
                0x00001c62      0x1a0 httpd/lmi_fs.o
 .debug_pubnames
                0x00001e02       0xf4 httpd/httpd.o
 .debug_pubnames
                0x00001ef6       0xac httpd/cgifuncs.o
 .debug_pubnames
                0x00001fa2       0x3d httpd/netbios.o
 .debug_pubnames
                0x00001fdf       0x3e startup.o

.debug_aranges  0x00000000     0x13e0
 .debug_aranges
                0x00000000       0x80 main.o
 .debug_aranges
                0x00000080       0x28 timertest.o
 .debug_aranges
                0x000000a8       0x30 ../common/drivers/LuminaryMicro/ustdlib.o
 .debug_aranges
                0x000000d8       0x40 ../common/rtos/Source/list.o
 .debug_aranges
                0x00000118       0xc0 ../common/rtos/Source/queue.o
 .debug_aranges
                0x000001d8      0x158 ../common/rtos/Source/tasks.o
 .debug_aranges
                0x00000330       0x70 ../common/rtos/Source/portable/GCC/ARM_CM3/port.o
 .debug_aranges
                0x000003a0       0x38 ../common/rtos/Source/portable/MemMang/heap_2.o
 .debug_aranges
                0x000003d8       0x40 ../common/ethernet/LMlwip/src/core/sntp.o
 .debug_aranges
                0x00000418      0x128 ../common/ethernet/LMlwip/src/core/dhcp.o
 .debug_aranges
                0x00000540       0x80 ../common/ethernet/LMlwip/src/core/dns.o
 .debug_aranges
                0x000005c0       0x98 ../common/ethernet/LMlwip/contrib/port/FreeRTOS/sys_arch.o
 .debug_aranges
                0x00000658       0x70 ../common/ethernet/LMlwip/src/core/netif.o
 .debug_aranges
                0x000006c8       0x70 ../common/ethernet/LMlwip/src/core/pbuf.o
 .debug_aranges
                0x00000738       0x28 ../common/ethernet/LMlwip/src/core/ipv4/icmp.o
 .debug_aranges
                0x00000760       0x50 ../common/ethernet/LMlwip/src/core/ipv4/inet.o
 .debug_aranges
                0x000007b0       0x40 ../common/ethernet/LMlwip/src/core/ipv4/inet_chksum.o
 .debug_aranges
                0x000007f0       0x38 ../common/ethernet/LMlwip/src/core/ipv4/ip.o
 .debug_aranges
                0x00000828       0x20 ../common/ethernet/LMlwip/src/core/ipv4/ip_addr.o
 .debug_aranges
                0x00000848       0x68 ../common/ethernet/LMlwip/src/core/udp.o
 .debug_aranges
                0x000008b0       0x68 ../common/ethernet/LMlwip/src/core/tcp_out.o
 .debug_aranges
                0x00000918       0x48 ../common/ethernet/LMlwip/src/core/tcp_in.o
 .debug_aranges
                0x00000960      0x108 ../common/ethernet/LMlwip/src/core/tcp.o
 .debug_aranges
                0x00000a68       0x20 ../common/ethernet/LMlwip/src/core/init.o
 .debug_aranges
                0x00000a88       0x58 ../common/ethernet/LMlwip/src/core/raw.o
 .debug_aranges
                0x00000ae0       0x50 ../common/ethernet/LMlwip/src/core/memp.o
 .debug_aranges
                0x00000b30       0x50 ../common/ethernet/LMlwip/src/core/sys.o
 .debug_aranges
                0x00000b80       0x78 ../common/ethernet/LMlwip/src/api/tcpip.o
 .debug_aranges
                0x00000bf8       0xf0 ../common/ethernet/LMlwip/src/api/api_msg.o
 .debug_aranges
                0x00000ce8       0xf0 ../common/ethernet/LMlwip/src/api/sockets.o
 .debug_aranges
                0x00000dd8       0x60 ../common/ethernet/LMlwip/src/api/netbuf.o
 .debug_aranges
                0x00000e38       0x90 ../common/ethernet/LMlwip/src/api/api_lib.o
 .debug_aranges
                0x00000ec8       0x80 ../common/ethernet/LMlwip/src/netif/etharp.o
 .debug_aranges
                0x00000f48      0x158 ../common/fatfs/ff.o
 .debug_aranges
                0x000010a0       0xc0 ../common/fatfs/mmc-ek-lm3s8962.o
 .debug_aranges
                0x00001160       0x28 ../common/fatfs/SDcard.o
 .debug_aranges
                0x00001188       0x70 ethernet/ETHIsr.o
 .debug_aranges
                0x000011f8       0x68 ethernet/LWIPStack.o
 .debug_aranges
                0x00001260       0x30 httpd/lmi_fs.o
 .debug_aranges
                0x00001290       0x80 httpd/httpd.o
 .debug_aranges
                0x00001310       0x58 httpd/cgifuncs.o
 .debug_aranges
                0x00001368       0x38 httpd/netbios.o
 .debug_aranges
                0x000013a0       0x40 startup.o

.debug_ranges   0x00000000     0x1288
 .debug_ranges  0x00000000       0x78 main.o
 .debug_ranges  0x00000078       0x20 timertest.o
 .debug_ranges  0x00000098       0x28 ../common/drivers/LuminaryMicro/ustdlib.o
 .debug_ranges  0x000000c0       0x38 ../common/rtos/Source/list.o
 .debug_ranges  0x000000f8       0xb8 ../common/rtos/Source/queue.o
 .debug_ranges  0x000001b0      0x150 ../common/rtos/Source/tasks.o
 .debug_ranges  0x00000300       0x68 ../common/rtos/Source/portable/GCC/ARM_CM3/port.o
 .debug_ranges  0x00000368       0x30 ../common/rtos/Source/portable/MemMang/heap_2.o
 .debug_ranges  0x00000398       0x38 ../common/ethernet/LMlwip/src/core/sntp.o
 .debug_ranges  0x000003d0      0x120 ../common/ethernet/LMlwip/src/core/dhcp.o
 .debug_ranges  0x000004f0       0x78 ../common/ethernet/LMlwip/src/core/dns.o
 .debug_ranges  0x00000568       0x90 ../common/ethernet/LMlwip/contrib/port/FreeRTOS/sys_arch.o
 .debug_ranges  0x000005f8       0x68 ../common/ethernet/LMlwip/src/core/netif.o
 .debug_ranges  0x00000660       0x68 ../common/ethernet/LMlwip/src/core/pbuf.o
 .debug_ranges  0x000006c8       0x20 ../common/ethernet/LMlwip/src/core/ipv4/icmp.o
 .debug_ranges  0x000006e8       0x48 ../common/ethernet/LMlwip/src/core/ipv4/inet.o
 .debug_ranges  0x00000730       0x38 ../common/ethernet/LMlwip/src/core/ipv4/inet_chksum.o
 .debug_ranges  0x00000768       0x30 ../common/ethernet/LMlwip/src/core/ipv4/ip.o
 .debug_ranges  0x00000798       0x18 ../common/ethernet/LMlwip/src/core/ipv4/ip_addr.o
 .debug_ranges  0x000007b0       0x60 ../common/ethernet/LMlwip/src/core/udp.o
 .debug_ranges  0x00000810       0x60 ../common/ethernet/LMlwip/src/core/tcp_out.o
 .debug_ranges  0x00000870       0x40 ../common/ethernet/LMlwip/src/core/tcp_in.o
 .debug_ranges  0x000008b0      0x100 ../common/ethernet/LMlwip/src/core/tcp.o
 .debug_ranges  0x000009b0       0x18 ../common/ethernet/LMlwip/src/core/init.o
 .debug_ranges  0x000009c8       0x50 ../common/ethernet/LMlwip/src/core/raw.o
 .debug_ranges  0x00000a18       0x48 ../common/ethernet/LMlwip/src/core/memp.o
 .debug_ranges  0x00000a60       0x48 ../common/ethernet/LMlwip/src/core/sys.o
 .debug_ranges  0x00000aa8       0x70 ../common/ethernet/LMlwip/src/api/tcpip.o
 .debug_ranges  0x00000b18       0xe8 ../common/ethernet/LMlwip/src/api/api_msg.o
 .debug_ranges  0x00000c00       0xe8 ../common/ethernet/LMlwip/src/api/sockets.o
 .debug_ranges  0x00000ce8       0x58 ../common/ethernet/LMlwip/src/api/netbuf.o
 .debug_ranges  0x00000d40       0x88 ../common/ethernet/LMlwip/src/api/api_lib.o
 .debug_ranges  0x00000dc8       0x78 ../common/ethernet/LMlwip/src/netif/etharp.o
 .debug_ranges  0x00000e40      0x150 ../common/fatfs/ff.o
 .debug_ranges  0x00000f90       0xb8 ../common/fatfs/mmc-ek-lm3s8962.o
 .debug_ranges  0x00001048       0x20 ../common/fatfs/SDcard.o
 .debug_ranges  0x00001068       0x68 ethernet/ETHIsr.o
 .debug_ranges  0x000010d0       0x60 ethernet/LWIPStack.o
 .debug_ranges  0x00001130       0x28 httpd/lmi_fs.o
 .debug_ranges  0x00001158       0x78 httpd/httpd.o
 .debug_ranges  0x000011d0       0x50 httpd/cgifuncs.o
 .debug_ranges  0x00001220       0x30 httpd/netbios.o
 .debug_ranges  0x00001250       0x38 startup.o

.debug_str      0x00000000     0x4bd5
 .debug_str     0x00000000      0x282 main.o
                                0x2c0 (size before relaxing)
 .debug_str     0x00000282       0xa0 timertest.o
                                0x10c (size before relaxing)
 .debug_str     0x00000322       0xc6 ../common/drivers/LuminaryMicro/ustdlib.o
                                0x19c (size before relaxing)
 .debug_str     0x000003e8      0x13b ../common/rtos/Source/list.o
                                0x20d (size before relaxing)
 .debug_str     0x00000523      0x410 ../common/rtos/Source/queue.o
                                0x59a (size before relaxing)
 .debug_str     0x00000933      0x843 ../common/rtos/Source/tasks.o
                                0xa46 (size before relaxing)
 .debug_str     0x00001176      0x139 ../common/rtos/Source/portable/GCC/ARM_CM3/port.o
                                0x1dc (size before relaxing)
 .debug_str     0x000012af      0x167 ../common/rtos/Source/portable/MemMang/heap_2.o
                                0x238 (size before relaxing)
 .debug_str     0x00001416      0x123 ../common/ethernet/LMlwip/src/core/sntp.o
                                0x235 (size before relaxing)
 .debug_str     0x00001539      0x4b2 ../common/ethernet/LMlwip/src/core/dhcp.o
                                0x667 (size before relaxing)
 .debug_str     0x000019eb      0x208 ../common/ethernet/LMlwip/src/core/dns.o
                                0x3ed (size before relaxing)
 .debug_str     0x00001bf3      0x1f4 ../common/ethernet/LMlwip/contrib/port/FreeRTOS/sys_arch.o
                                0x330 (size before relaxing)
 .debug_str     0x00001de7       0x2b ../common/ethernet/LMlwip/src/core/stats.o
                                 0xb3 (size before relaxing)
 .debug_str     0x00001e12      0x2d3 ../common/ethernet/LMlwip/src/core/netif.o
                                0x4c7 (size before relaxing)
 .debug_str     0x000020e5      0x224 ../common/ethernet/LMlwip/src/core/pbuf.o
                                0x39e (size before relaxing)
 .debug_str     0x00002309       0x32 ../common/ethernet/LMlwip/src/core/ipv4/ip_frag.o
                                 0xf1 (size before relaxing)
 .debug_str     0x0000233b       0x31 ../common/ethernet/LMlwip/src/core/ipv4/autoip.o
                                 0xb9 (size before relaxing)
 .debug_str     0x0000236c      0x115 ../common/ethernet/LMlwip/src/core/ipv4/icmp.o
                                0x2f2 (size before relaxing)
 .debug_str     0x00002481       0x2f ../common/ethernet/LMlwip/src/core/ipv4/igmp.o
                                 0xb7 (size before relaxing)
 .debug_str     0x000024b0       0x6b ../common/ethernet/LMlwip/src/core/ipv4/inet.o
                                0x122 (size before relaxing)
 .debug_str     0x0000251b       0xc3 ../common/ethernet/LMlwip/src/core/ipv4/inet_chksum.o
                                0x1d8 (size before relaxing)
 .debug_str     0x000025de       0x7d ../common/ethernet/LMlwip/src/core/ipv4/ip.o
                                0x42d (size before relaxing)
 .debug_str     0x0000265b       0x50 ../common/ethernet/LMlwip/src/core/ipv4/ip_addr.o
                                0x191 (size before relaxing)
 .debug_str     0x000026ab       0xe1 ../common/ethernet/LMlwip/src/core/udp.o
                                0x5c9 (size before relaxing)
 .debug_str     0x0000278c       0xf1 ../common/ethernet/LMlwip/src/core/tcp_out.o
                                0x5c3 (size before relaxing)
 .debug_str     0x0000287d      0x125 ../common/ethernet/LMlwip/src/core/tcp_in.o
                                0x61c (size before relaxing)
 .debug_str     0x000029a2      0x212 ../common/ethernet/LMlwip/src/core/tcp.o
                                0x743 (size before relaxing)
 .debug_str     0x00002bb4       0x34 ../common/ethernet/LMlwip/src/core/init.o
                                 0xce (size before relaxing)
 .debug_str     0x00002be8       0x29 ../common/ethernet/LMlwip/src/core/mem.o
                                 0xb1 (size before relaxing)
 .debug_str     0x00002c11       0x98 ../common/ethernet/LMlwip/src/core/raw.o
                                0x393 (size before relaxing)
 .debug_str     0x00002ca9       0xdf ../common/ethernet/LMlwip/src/core/memp.o
                                0x2a3 (size before relaxing)
 .debug_str     0x00002d88       0xbd ../common/ethernet/LMlwip/src/core/sys.o
                                0x2b8 (size before relaxing)
 .debug_str     0x00002e45      0x2ed ../common/ethernet/LMlwip/src/api/tcpip.o
                                0x988 (size before relaxing)
 .debug_str     0x00003132      0x182 ../common/ethernet/LMlwip/src/api/api_msg.o
                                0x86b (size before relaxing)
 .debug_str     0x000032b4      0x317 ../common/ethernet/LMlwip/src/api/sockets.o
                                0x977 (size before relaxing)
 .debug_str     0x000035cb       0x9a ../common/ethernet/LMlwip/src/api/netbuf.o
                                0x2de (size before relaxing)
 .debug_str     0x00003665      0x125 ../common/ethernet/LMlwip/src/api/api_lib.o
                                0x7ae (size before relaxing)
 .debug_str     0x0000378a      0x2d9 ../common/ethernet/LMlwip/src/netif/etharp.o
                                0x741 (size before relaxing)
 .debug_str     0x00003a63      0x46b ../common/fatfs/ff.o
                                0x55c (size before relaxing)
 .debug_str     0x00003ece      0x150 ../common/fatfs/mmc-ek-lm3s8962.o
                                0x26c (size before relaxing)
 .debug_str     0x0000401e       0x87 ../common/fatfs/SDcard.o
                                0x339 (size before relaxing)
 .debug_str     0x000040a5      0x1e4 ethernet/ETHIsr.o
                                0x2b7 (size before relaxing)
 .debug_str     0x00004289      0x13d ethernet/LWIPStack.o
                                0x52b (size before relaxing)
 .debug_str     0x000043c6      0x2c6 httpd/lmi_fs.o
                                0x575 (size before relaxing)
 .debug_str     0x0000468c      0x281 httpd/httpd.o
                                0x654 (size before relaxing)
 .debug_str     0x0000490d      0x12c httpd/cgifuncs.o
                                0x20a (size before relaxing)
 .debug_str     0x00004a39      0x120 httpd/netbios.o
                                0x34f (size before relaxing)
 .debug_str     0x00004b59       0x7c startup.o
                                 0xcf (size before relaxing)

.comment        0x00000000      0x8fe
 .comment       0x00000000       0x2b main.o
 .comment       0x0000002b       0x2b timertest.o
 .comment       0x00000056       0x2b ../common/drivers/LuminaryMicro/ustdlib.o
 .comment       0x00000081       0x2b ../common/rtos/Source/list.o
 .comment       0x000000ac       0x2b ../common/rtos/Source/queue.o
 .comment       0x000000d7       0x2b ../common/rtos/Source/tasks.o
 .comment       0x00000102       0x2b ../common/rtos/Source/portable/GCC/ARM_CM3/port.o
 .comment       0x0000012d       0x2b ../common/rtos/Source/portable/MemMang/heap_2.o
 .comment       0x00000158       0x2b ../common/ethernet/LMlwip/src/core/sntp.o
 .comment       0x00000183       0x2b ../common/ethernet/LMlwip/src/core/dhcp.o
 .comment       0x000001ae       0x2b ../common/ethernet/LMlwip/src/core/dns.o
 .comment       0x000001d9       0x2b ../common/ethernet/LMlwip/contrib/port/FreeRTOS/sys_arch.o
 .comment       0x00000204       0x2b ../common/ethernet/LMlwip/src/core/stats.o
 .comment       0x0000022f       0x2b ../common/ethernet/LMlwip/src/core/netif.o
 .comment       0x0000025a       0x2b ../common/ethernet/LMlwip/src/core/pbuf.o
 .comment       0x00000285       0x2b ../common/ethernet/LMlwip/src/core/ipv4/ip_frag.o
 .comment       0x000002b0       0x2b ../common/ethernet/LMlwip/src/core/ipv4/autoip.o
 .comment       0x000002db       0x2b ../common/ethernet/LMlwip/src/core/ipv4/icmp.o
 .comment       0x00000306       0x2b ../common/ethernet/LMlwip/src/core/ipv4/igmp.o
 .comment       0x00000331       0x2b ../common/ethernet/LMlwip/src/core/ipv4/inet.o
 .comment       0x0000035c       0x2b ../common/ethernet/LMlwip/src/core/ipv4/inet_chksum.o
 .comment       0x00000387       0x2b ../common/ethernet/LMlwip/src/core/ipv4/ip.o
 .comment       0x000003b2       0x2b ../common/ethernet/LMlwip/src/core/ipv4/ip_addr.o
 .comment       0x000003dd       0x2b ../common/ethernet/LMlwip/src/core/udp.o
 .comment       0x00000408       0x2b ../common/ethernet/LMlwip/src/core/tcp_out.o
 .comment       0x00000433       0x2b ../common/ethernet/LMlwip/src/core/tcp_in.o
 .comment       0x0000045e       0x2b ../common/ethernet/LMlwip/src/core/tcp.o
 .comment       0x00000489       0x2b ../common/ethernet/LMlwip/src/core/init.o
 .comment       0x000004b4       0x2b ../common/ethernet/LMlwip/src/core/mem.o
 .comment       0x000004df       0x2b ../common/ethernet/LMlwip/src/core/raw.o
 .comment       0x0000050a       0x2b ../common/ethernet/LMlwip/src/core/memp.o
 .comment       0x00000535       0x2b ../common/ethernet/LMlwip/src/core/sys.o
 .comment       0x00000560       0x2b ../common/ethernet/LMlwip/src/api/tcpip.o
 .comment       0x0000058b       0x2b ../common/ethernet/LMlwip/src/api/api_msg.o
 .comment       0x000005b6       0x2b ../common/ethernet/LMlwip/src/api/sockets.o
 .comment       0x000005e1       0x2b ../common/ethernet/LMlwip/src/api/netbuf.o
 .comment       0x0000060c       0x2b ../common/ethernet/LMlwip/src/api/api_lib.o
 .comment       0x00000637       0x2b ../common/ethernet/LMlwip/src/netif/etharp.o
 .comment       0x00000662       0x2b ../common/fatfs/ff.o
 .comment       0x0000068d       0x2b ../common/fatfs/mmc-ek-lm3s8962.o
 .comment       0x000006b8       0x2b ../common/fatfs/SDcard.o
 .comment       0x000006e3       0x2b ethernet/ETHIsr.o
 .comment       0x0000070e       0x2b ethernet/LWIPStack.o
 .comment       0x00000739       0x2b httpd/lmi_fs.o
 .comment       0x00000764       0x2b httpd/httpd.o
 .comment       0x0000078f       0x2b httpd/cgifuncs.o
 .comment       0x000007ba       0x2b httpd/netbios.o
 .comment       0x000007e5       0x2b startup.o
 .comment       0x00000810       0x22 ../common/drivers/LuminaryMicro/arm-none-eabi-gcc/libdriver.a(ethernet.o)
 .comment       0x00000832       0x22 ../common/drivers/LuminaryMicro/arm-none-eabi-gcc/libdriver.a(flash.o)
 .comment       0x00000854       0x22 ../common/drivers/LuminaryMicro/arm-none-eabi-gcc/libdriver.a(gpio.o)
 .comment       0x00000876       0x22 ../common/drivers/LuminaryMicro/arm-none-eabi-gcc/libdriver.a(interrupt.o)
 .comment       0x00000898       0x22 ../common/drivers/LuminaryMicro/arm-none-eabi-gcc/libdriver.a(ssi.o)
 .comment       0x000008ba       0x22 ../common/drivers/LuminaryMicro/arm-none-eabi-gcc/libdriver.a(sysctl.o)
 .comment       0x000008dc       0x22 ../common/drivers/LuminaryMicro/arm-none-eabi-gcc/libdriver.a(timer.o)

.ARM.attributes
                0x00000000       0x2f
 .ARM.attributes
                0x00000000       0x31 main.o
 .ARM.attributes
                0x00000031       0x31 timertest.o
 .ARM.attributes
                0x00000062       0x31 ../common/drivers/LuminaryMicro/ustdlib.o
 .ARM.attributes
                0x00000093       0x31 ../common/rtos/Source/list.o
 .ARM.attributes
                0x000000c4       0x31 ../common/rtos/Source/queue.o
 .ARM.attributes
                0x000000f5       0x31 ../common/rtos/Source/tasks.o
 .ARM.attributes
                0x00000126       0x31 ../common/rtos/Source/portable/GCC/ARM_CM3/port.o
 .ARM.attributes
                0x00000157       0x31 ../common/rtos/Source/portable/MemMang/heap_2.o
 .ARM.attributes
                0x00000188       0x31 ../common/ethernet/LMlwip/src/core/sntp.o
 .ARM.attributes
                0x000001b9       0x31 ../common/ethernet/LMlwip/src/core/dhcp.o
 .ARM.attributes
                0x000001ea       0x31 ../common/ethernet/LMlwip/src/core/dns.o
 .ARM.attributes
                0x0000021b       0x31 ../common/ethernet/LMlwip/contrib/port/FreeRTOS/sys_arch.o
 .ARM.attributes
                0x0000024c       0x31 ../common/ethernet/LMlwip/src/core/stats.o
 .ARM.attributes
                0x0000027d       0x31 ../common/ethernet/LMlwip/src/core/netif.o
 .ARM.attributes
                0x000002ae       0x31 ../common/ethernet/LMlwip/src/core/pbuf.o
 .ARM.attributes
                0x000002df       0x31 ../common/ethernet/LMlwip/src/core/ipv4/ip_frag.o
 .ARM.attributes
                0x00000310       0x31 ../common/ethernet/LMlwip/src/core/ipv4/autoip.o
 .ARM.attributes
                0x00000341       0x31 ../common/ethernet/LMlwip/src/core/ipv4/icmp.o
 .ARM.attributes
                0x00000372       0x31 ../common/ethernet/LMlwip/src/core/ipv4/igmp.o
 .ARM.attributes
                0x000003a3       0x31 ../common/ethernet/LMlwip/src/core/ipv4/inet.o
 .ARM.attributes
                0x000003d4       0x31 ../common/ethernet/LMlwip/src/core/ipv4/inet_chksum.o
 .ARM.attributes
                0x00000405       0x31 ../common/ethernet/LMlwip/src/core/ipv4/ip.o
 .ARM.attributes
                0x00000436       0x31 ../common/ethernet/LMlwip/src/core/ipv4/ip_addr.o
 .ARM.attributes
                0x00000467       0x31 ../common/ethernet/LMlwip/src/core/udp.o
 .ARM.attributes
                0x00000498       0x31 ../common/ethernet/LMlwip/src/core/tcp_out.o
 .ARM.attributes
                0x000004c9       0x31 ../common/ethernet/LMlwip/src/core/tcp_in.o
 .ARM.attributes
                0x000004fa       0x31 ../common/ethernet/LMlwip/src/core/tcp.o
 .ARM.attributes
                0x0000052b       0x31 ../common/ethernet/LMlwip/src/core/init.o
 .ARM.attributes
                0x0000055c       0x31 ../common/ethernet/LMlwip/src/core/mem.o
 .ARM.attributes
                0x0000058d       0x31 ../common/ethernet/LMlwip/src/core/raw.o
 .ARM.attributes
                0x000005be       0x31 ../common/ethernet/LMlwip/src/core/memp.o
 .ARM.attributes
                0x000005ef       0x31 ../common/ethernet/LMlwip/src/core/sys.o
 .ARM.attributes
                0x00000620       0x31 ../common/ethernet/LMlwip/src/api/tcpip.o
 .ARM.attributes
                0x00000651       0x31 ../common/ethernet/LMlwip/src/api/api_msg.o
 .ARM.attributes
                0x00000682       0x31 ../common/ethernet/LMlwip/src/api/sockets.o
 .ARM.attributes
                0x000006b3       0x31 ../common/ethernet/LMlwip/src/api/netbuf.o
 .ARM.attributes
                0x000006e4       0x31 ../common/ethernet/LMlwip/src/api/api_lib.o
 .ARM.attributes
                0x00000715       0x31 ../common/ethernet/LMlwip/src/netif/etharp.o
 .ARM.attributes
                0x00000746       0x31 ../common/fatfs/ff.o
 .ARM.attributes
                0x00000777       0x31 ../common/fatfs/mmc-ek-lm3s8962.o
 .ARM.attributes
                0x000007a8       0x31 ../common/fatfs/SDcard.o
 .ARM.attributes
                0x000007d9       0x31 ethernet/ETHIsr.o
 .ARM.attributes
                0x0000080a       0x31 ethernet/LWIPStack.o
 .ARM.attributes
                0x0000083b       0x31 httpd/lmi_fs.o
 .ARM.attributes
                0x0000086c       0x31 httpd/httpd.o
 .ARM.attributes
                0x0000089d       0x31 httpd/cgifuncs.o
 .ARM.attributes
                0x000008ce       0x31 httpd/netbios.o
 .ARM.attributes
                0x000008ff       0x31 startup.o
 .ARM.attributes
                0x00000930       0x31 ../common/drivers/LuminaryMicro/arm-none-eabi-gcc/libdriver.a(ethernet.o)
 .ARM.attributes
                0x00000961       0x31 ../common/drivers/LuminaryMicro/arm-none-eabi-gcc/libdriver.a(flash.o)
 .ARM.attributes
                0x00000992       0x31 ../common/drivers/LuminaryMicro/arm-none-eabi-gcc/libdriver.a(gpio.o)
 .ARM.attributes
                0x000009c3       0x31 ../common/drivers/LuminaryMicro/arm-none-eabi-gcc/libdriver.a(interrupt.o)
 .ARM.attributes
                0x000009f4       0x31 ../common/drivers/LuminaryMicro/arm-none-eabi-gcc/libdriver.a(ssi.o)
 .ARM.attributes
                0x00000a25       0x31 ../common/drivers/LuminaryMicro/arm-none-eabi-gcc/libdriver.a(sysctl.o)
 .ARM.attributes
                0x00000a56       0x31 ../common/drivers/LuminaryMicro/arm-none-eabi-gcc/libdriver.a(timer.o)
 .ARM.attributes
                0x00000a87       0x21 ../common/drivers/LuminaryMicro/arm-none-eabi-gcc/libdriver.a(cpu.o)
 .ARM.attributes
                0x00000aa8       0x27 /home/anzinger/openocd/arm-2009q1/bin/../lib/gcc/arm-none-eabi/4.3.3/../../../../arm-none-eabi/lib/thumb2/libc.a(lib_a-ctime.o)
 .ARM.attributes
                0x00000acf       0x27 /home/anzinger/openocd/arm-2009q1/bin/../lib/gcc/arm-none-eabi/4.3.3/../../../../arm-none-eabi/lib/thumb2/libc.a(lib_a-lcltime.o)
 .ARM.attributes
                0x00000af6       0x27 /home/anzinger/openocd/arm-2009q1/bin/../lib/gcc/arm-none-eabi/4.3.3/../../../../arm-none-eabi/lib/thumb2/libc.a(lib_a-lcltime_r.o)
 .ARM.attributes
                0x00000b1d       0x27 /home/anzinger/openocd/arm-2009q1/bin/../lib/gcc/arm-none-eabi/4.3.3/../../../../arm-none-eabi/lib/thumb2/libc.a(lib_a-malloc.o)
 .ARM.attributes
                0x00000b44       0x27 /home/anzinger/openocd/arm-2009q1/bin/../lib/gcc/arm-none-eabi/4.3.3/../../../../arm-none-eabi/lib/thumb2/libc.a(lib_a-mallocr.o)
 .ARM.attributes
                0x00000b6b       0x27 /home/anzinger/openocd/arm-2009q1/bin/../lib/gcc/arm-none-eabi/4.3.3/../../../../arm-none-eabi/lib/thumb2/libc.a(lib_a-memcmp.o)
 .ARM.attributes
                0x00000b92       0x27 /home/anzinger/openocd/arm-2009q1/bin/../lib/gcc/arm-none-eabi/4.3.3/../../../../arm-none-eabi/lib/thumb2/libc.a(lib_a-memcpy.o)
 .ARM.attributes
                0x00000bb9       0x27 /home/anzinger/openocd/arm-2009q1/bin/../lib/gcc/arm-none-eabi/4.3.3/../../../../arm-none-eabi/lib/thumb2/libc.a(lib_a-memset.o)
 .ARM.attributes
                0x00000be0       0x27 /home/anzinger/openocd/arm-2009q1/bin/../lib/gcc/arm-none-eabi/4.3.3/../../../../arm-none-eabi/lib/thumb2/libc.a(lib_a-mktm_r.o)
 .ARM.attributes
                0x00000c07       0x27 /home/anzinger/openocd/arm-2009q1/bin/../lib/gcc/arm-none-eabi/4.3.3/../../../../arm-none-eabi/lib/thumb2/libc.a(lib_a-mlock.o)
 .ARM.attributes
                0x00000c2e       0x27 /home/anzinger/openocd/arm-2009q1/bin/../lib/gcc/arm-none-eabi/4.3.3/../../../../arm-none-eabi/lib/thumb2/libc.a(lib_a-sbrkr.o)
 .ARM.attributes
                0x00000c55       0x27 /home/anzinger/openocd/arm-2009q1/bin/../lib/gcc/arm-none-eabi/4.3.3/../../../../arm-none-eabi/lib/thumb2/libc.a(lib_a-strcat.o)
 .ARM.attributes
                0x00000c7c       0x27 /home/anzinger/openocd/arm-2009q1/bin/../lib/gcc/arm-none-eabi/4.3.3/../../../../arm-none-eabi/lib/thumb2/libc.a(lib_a-strchr.o)
 .ARM.attributes
                0x00000ca3       0x27 /home/anzinger/openocd/arm-2009q1/bin/../lib/gcc/arm-none-eabi/4.3.3/../../../../arm-none-eabi/lib/thumb2/libc.a(lib_a-strcmp.o)
 .ARM.attributes
                0x00000cca       0x27 /home/anzinger/openocd/arm-2009q1/bin/../lib/gcc/arm-none-eabi/4.3.3/../../../../arm-none-eabi/lib/thumb2/libc.a(lib_a-strcpy.o)
 .ARM.attributes
                0x00000cf1       0x27 /home/anzinger/openocd/arm-2009q1/bin/../lib/gcc/arm-none-eabi/4.3.3/../../../../arm-none-eabi/lib/thumb2/libc.a(lib_a-strlen.o)
 .ARM.attributes
                0x00000d18       0x27 /home/anzinger/openocd/arm-2009q1/bin/../lib/gcc/arm-none-eabi/4.3.3/../../../../arm-none-eabi/lib/thumb2/libc.a(lib_a-strncmp.o)
 .ARM.attributes
                0x00000d3f       0x27 /home/anzinger/openocd/arm-2009q1/bin/../lib/gcc/arm-none-eabi/4.3.3/../../../../arm-none-eabi/lib/thumb2/libc.a(lib_a-strncpy.o)
 .ARM.attributes
                0x00000d66       0x27 /home/anzinger/openocd/arm-2009q1/bin/../lib/gcc/arm-none-eabi/4.3.3/../../../../arm-none-eabi/lib/thumb2/libc.a(lib_a-strstr.o)
 .ARM.attributes
                0x00000d8d       0x27 /home/anzinger/openocd/arm-2009q1/bin/../lib/gcc/arm-none-eabi/4.3.3/../../../../arm-none-eabi/lib/thumb2/libc.a(lib_a-tzlock.o)
 .ARM.attributes
                0x00000db4       0x27 /home/anzinger/openocd/arm-2009q1/bin/../lib/gcc/arm-none-eabi/4.3.3/../../../../arm-none-eabi/lib/thumb2/libc.a(lib_a-tzvars.o)
 .ARM.attributes
                0x00000ddb       0x27 /home/anzinger/openocd/arm-2009q1/bin/../lib/gcc/arm-none-eabi/4.3.3/../../../../arm-none-eabi/lib/thumb2/libc.a(lib_a-asctime.o)
 .ARM.attributes
                0x00000e02       0x27 /home/anzinger/openocd/arm-2009q1/bin/../lib/gcc/arm-none-eabi/4.3.3/../../../../arm-none-eabi/lib/thumb2/libc.a(lib_a-asctime_r.o)
 .ARM.attributes
                0x00000e29       0x27 /home/anzinger/openocd/arm-2009q1/bin/../lib/gcc/arm-none-eabi/4.3.3/../../../../arm-none-eabi/lib/thumb2/libc.a(lib_a-freer.o)
 .ARM.attributes
                0x00000e50       0x27 /home/anzinger/openocd/arm-2009q1/bin/../lib/gcc/arm-none-eabi/4.3.3/../../../../arm-none-eabi/lib/thumb2/libc.a(lib_a-gettzinfo.o)
 .ARM.attributes
                0x00000e77       0x27 /home/anzinger/openocd/arm-2009q1/bin/../lib/gcc/arm-none-eabi/4.3.3/../../../../arm-none-eabi/lib/thumb2/libc.a(lib_a-impure.o)
 .ARM.attributes
                0x00000e9e       0x27 /home/anzinger/openocd/arm-2009q1/bin/../lib/gcc/arm-none-eabi/4.3.3/../../../../arm-none-eabi/lib/thumb2/libc.a(lib_a-memchr.o)
 .ARM.attributes
                0x00000ec5       0x27 /home/anzinger/openocd/arm-2009q1/bin/../lib/gcc/arm-none-eabi/4.3.3/../../../../arm-none-eabi/lib/thumb2/libc.a(lib_a-reent.o)
 .ARM.attributes
                0x00000eec       0x27 /home/anzinger/openocd/arm-2009q1/bin/../lib/gcc/arm-none-eabi/4.3.3/../../../../arm-none-eabi/lib/thumb2/libc.a(lib_a-sprintf.o)
 .ARM.attributes
                0x00000f13       0x27 /home/anzinger/openocd/arm-2009q1/bin/../lib/gcc/arm-none-eabi/4.3.3/../../../../arm-none-eabi/lib/thumb2/libc.a(lib_a-svfprintf.o)
 .ARM.attributes
                0x00000f3a       0x27 /home/anzinger/openocd/arm-2009q1/bin/../lib/gcc/arm-none-eabi/4.3.3/../../../../arm-none-eabi/lib/thumb2/libc.a(lib_a-dtoa.o)
 .ARM.attributes
                0x00000f61       0x27 /home/anzinger/openocd/arm-2009q1/bin/../lib/gcc/arm-none-eabi/4.3.3/../../../../arm-none-eabi/lib/thumb2/libc.a(lib_a-locale.o)
 .ARM.attributes
                0x00000f88       0x27 /home/anzinger/openocd/arm-2009q1/bin/../lib/gcc/arm-none-eabi/4.3.3/../../../../arm-none-eabi/lib/thumb2/libc.a(lib_a-memmove.o)
 .ARM.attributes
                0x00000faf       0x27 /home/anzinger/openocd/arm-2009q1/bin/../lib/gcc/arm-none-eabi/4.3.3/../../../../arm-none-eabi/lib/thumb2/libc.a(lib_a-mprec.o)
 .ARM.attributes
                0x00000fd6       0x27 /home/anzinger/openocd/arm-2009q1/bin/../lib/gcc/arm-none-eabi/4.3.3/../../../../arm-none-eabi/lib/thumb2/libc.a(lib_a-reallocr.o)
 .ARM.attributes
                0x00000ffd       0x27 /home/anzinger/openocd/arm-2009q1/bin/../lib/gcc/arm-none-eabi/4.3.3/../../../../arm-none-eabi/lib/thumb2/libc.a(lib_a-s_isinfd.o)
 .ARM.attributes
                0x00001024       0x27 /home/anzinger/openocd/arm-2009q1/bin/../lib/gcc/arm-none-eabi/4.3.3/../../../../arm-none-eabi/lib/thumb2/libc.a(lib_a-s_isnand.o)
 .ARM.attributes
                0x0000104b       0x27 /home/anzinger/openocd/arm-2009q1/bin/../lib/gcc/arm-none-eabi/4.3.3/../../../../arm-none-eabi/lib/thumb2/libc.a(lib_a-callocr.o)
 .ARM.attributes
                0x00001072       0x17 /home/anzinger/openocd/arm-2009q1/bin/../lib/gcc/arm-none-eabi/4.3.3/thumb2/libgcc.a(_udivsi3.o)
 .ARM.attributes
                0x00001089       0x17 /home/anzinger/openocd/arm-2009q1/bin/../lib/gcc/arm-none-eabi/4.3.3/thumb2/libgcc.a(_dvmd_tls.o)
 .ARM.attributes
                0x000010a0       0x17 /home/anzinger/openocd/arm-2009q1/bin/../lib/gcc/arm-none-eabi/4.3.3/thumb2/libgcc.a(_arm_addsubdf3.o)
 .ARM.attributes
                0x000010b7       0x17 /home/anzinger/openocd/arm-2009q1/bin/../lib/gcc/arm-none-eabi/4.3.3/thumb2/libgcc.a(_arm_muldivdf3.o)
 .ARM.attributes
                0x000010ce       0x17 /home/anzinger/openocd/arm-2009q1/bin/../lib/gcc/arm-none-eabi/4.3.3/thumb2/libgcc.a(_arm_cmpdf2.o)
 .ARM.attributes
                0x000010e5       0x17 /home/anzinger/openocd/arm-2009q1/bin/../lib/gcc/arm-none-eabi/4.3.3/thumb2/libgcc.a(_arm_fixdfsi.o)
 .ARM.attributes
                0x000010fc       0x17 /home/anzinger/openocd/arm-2009q1/bin/../lib/gcc/arm-none-eabi/4.3.3/thumb2/libgcc.a(_aeabi_uldivmod.o)
 .ARM.attributes
                0x00001113       0x27 /home/anzinger/openocd/arm-2009q1/bin/../lib/gcc/arm-none-eabi/4.3.3/thumb2/libgcc.a(bpabi.o)
 .ARM.attributes
                0x0000113a       0x27 /home/anzinger/openocd/arm-2009q1/bin/../lib/gcc/arm-none-eabi/4.3.3/thumb2/libgcc.a(_divdi3.o)
 .ARM.attributes
                0x00001161       0x27 /home/anzinger/openocd/arm-2009q1/bin/../lib/gcc/arm-none-eabi/4.3.3/thumb2/libgcc.a(_udivdi3.o)
 .ARM.attributes
                0x00001188       0x27 /home/anzinger/openocd/arm-2009q1/bin/../lib/gcc/arm-none-eabi/4.3.3/thumb2/libgcc.a(_clz.o)
