Archive member included because of file (symbol)

../../Common/drivers/LuminaryMicro/arm-none-eabi-gcc/libdriver.a(ethernet.o)
                              ./webserver/emac.o (EthernetInitExpClk)
../../Common/drivers/LuminaryMicro/arm-none-eabi-gcc/libdriver.a(flash.o)
                              ./webserver/uIP_Task.o (FlashUserGet)
../../Common/drivers/LuminaryMicro/arm-none-eabi-gcc/libdriver.a(gpio.o)
                              main.o (GPIODirModeSet)
../../Common/drivers/LuminaryMicro/arm-none-eabi-gcc/libdriver.a(interrupt.o)
                              ../../Common/drivers/LuminaryMicro/arm-none-eabi-gcc/libdriver.a(ethernet.o) (IntRegister)
../../Common/drivers/LuminaryMicro/arm-none-eabi-gcc/libdriver.a(ssi.o)
                              rit128x96x4.o (SSIConfigSetExpClk)
../../Common/drivers/LuminaryMicro/arm-none-eabi-gcc/libdriver.a(sysctl.o)
                              main.o (SysCtlPeripheralPresent)
../../Common/drivers/LuminaryMicro/arm-none-eabi-gcc/libdriver.a(timer.o)
                              timertest.o (TimerEnable)
../../Common/drivers/LuminaryMicro/arm-none-eabi-gcc/libdriver.a(cpu.o)
                              ../../Common/drivers/LuminaryMicro/arm-none-eabi-gcc/libdriver.a(interrupt.o) (CPUcpsid)
../../Common/drivers/LuminaryMicro/arm-none-eabi-gcc/libgr.a(context.o)
                              formike128x128x16.o (GrContextInit)
../../Common/drivers/LuminaryMicro/arm-none-eabi-gcc/libgr.a(fontcmss12.o)
                              formike128x128x16.o (g_sFontCmss12)
../../Common/drivers/LuminaryMicro/arm-none-eabi-gcc/libgr.a(image.o)
                              formike128x128x16.o (GrImageDraw)
../../Common/drivers/LuminaryMicro/arm-none-eabi-gcc/libgr.a(rectangle.o)
                              formike128x128x16.o (GrRectFill)
../../Common/drivers/LuminaryMicro/arm-none-eabi-gcc/libgr.a(string.o)
                              formike128x128x16.o (GrStringDraw)
../../Common/drivers/LuminaryMicro/arm-none-eabi-gcc/libgr.a(line.o)
                              ../../Common/drivers/LuminaryMicro/arm-none-eabi-gcc/libgr.a(rectangle.o) (GrLineDrawH)
/opt/arm-cortex-toolchain/lib/gcc/arm-none-eabi/4.3.3/../../../../arm-none-eabi/lib/thumb/libg.a(lib_a-memcmp.o)
                              ../../Source/tasks.o (memcmp)
/opt/arm-cortex-toolchain/lib/gcc/arm-none-eabi/4.3.3/../../../../arm-none-eabi/lib/thumb/libg.a(lib_a-memcpy.o)
                              ../../Common/drivers/LuminaryMicro/ustdlib.o (memcpy)
/opt/arm-cortex-toolchain/lib/gcc/arm-none-eabi/4.3.3/../../../../arm-none-eabi/lib/thumb/libg.a(lib_a-memset.o)
                              ../../Common/Minimal/IntQueue.o (memset)
/opt/arm-cortex-toolchain/lib/gcc/arm-none-eabi/4.3.3/../../../../arm-none-eabi/lib/thumb/libg.a(lib_a-strcat.o)
                              ./webserver/httpd-cgi.o (strcat)
/opt/arm-cortex-toolchain/lib/gcc/arm-none-eabi/4.3.3/../../../../arm-none-eabi/lib/thumb/libg.a(lib_a-strchr.o)
                              ./webserver/uIP_Task.o (strchr)
/opt/arm-cortex-toolchain/lib/gcc/arm-none-eabi/4.3.3/../../../../arm-none-eabi/lib/thumb/libg.a(lib_a-strcpy.o)
                              ./webserver/uIP_Task.o (strcpy)
/opt/arm-cortex-toolchain/lib/gcc/arm-none-eabi/4.3.3/../../../../arm-none-eabi/lib/thumb/libg.a(lib_a-strlen.o)
                              formike128x128x16.o (strlen)
/opt/arm-cortex-toolchain/lib/gcc/arm-none-eabi/4.3.3/../../../../arm-none-eabi/lib/thumb/libg.a(lib_a-strncmp.o)
                              ./webserver/httpd.o (strncmp)
/opt/arm-cortex-toolchain/lib/gcc/arm-none-eabi/4.3.3/../../../../arm-none-eabi/lib/thumb/libg.a(lib_a-strncpy.o)
                              ../../Common/drivers/LuminaryMicro/ustdlib.o (strncpy)
/opt/arm-cortex-toolchain/lib/gcc/arm-none-eabi/4.3.3/../../../../arm-none-eabi/lib/thumb/libg.a(lib_a-strrchr.o)
                              ./webserver/httpd.o (strrchr)
/opt/arm-cortex-toolchain/lib/gcc/arm-none-eabi/4.3.3/../../../../arm-none-eabi/lib/thumb/libg.a(lib_a-strstr.o)
                              ./webserver/uIP_Task.o (strstr)
/opt/arm-cortex-toolchain/lib/gcc/arm-none-eabi/4.3.3/../../../../arm-none-eabi/lib/thumb/libg.a(lib_a-memchr.o)
                              /opt/arm-cortex-toolchain/lib/gcc/arm-none-eabi/4.3.3/../../../../arm-none-eabi/lib/thumb/libg.a(lib_a-strstr.o) (memchr)

Allocating common symbols
Common symbol       size              file

uip_len             0x2               ../../Common/ethernet/uIP/uip-1.0/uip/uip.o
xOLEDQueue          0x4               main.o
pcStatus            0x4               ./webserver/httpd-cgi.o
xHighPriorityTask   0x4               ../../Common/Minimal/QPeek.o
uip_sappdata        0x4               ../../Common/ethernet/uIP/uip-1.0/uip/uip.o
uip_acc32           0x4               ../../Common/ethernet/uIP/uip-1.0/uip/uip.o
xMediumPriorityTask
                    0x4               ../../Common/Minimal/QPeek.o
xQueueRegistry      0x50              ../../Source/queue.o
uip_flags           0x1               ../../Common/ethernet/uIP/uip-1.0/uip/uip.o
xHighPriorityNormallyEmptyTask2
                    0x4               ../../Common/Minimal/IntQueue.o
xHighPriorityNormallyFullTask1
                    0x4               ../../Common/Minimal/IntQueue.o
uip_appdata         0x4               ../../Common/ethernet/uIP/uip-1.0/uip/uip.o
uip_conn            0x4               ../../Common/ethernet/uIP/uip-1.0/uip/uip.o
uip_conns           0x1fe0            ../../Common/ethernet/uIP/uip-1.0/uip/uip.o
xHighPriorityNormallyEmptyTask1
                    0x4               ../../Common/Minimal/IntQueue.o
xHighestPriorityTask
                    0x4               ../../Common/Minimal/QPeek.o
xCreatedTask        0x4               ../../Common/Minimal/death.o
uip_listenports     0x50              ../../Common/ethernet/uIP/uip-1.0/uip/uip.o
uip_draddr          0x4               ../../Common/ethernet/uIP/uip-1.0/uip/uip.o
uip_stat            0x2c              ../../Common/ethernet/uIP/uip-1.0/uip/uip.o
uip_netmask         0x4               ../../Common/ethernet/uIP/uip-1.0/uip/uip.o
uip_hostaddr        0x4               ../../Common/ethernet/uIP/uip-1.0/uip/uip.o
xHighPriorityNormallyFullTask2
                    0x4               ../../Common/Minimal/IntQueue.o
uip_buf             0x4               ./webserver/emac.o
uip_slen            0x2               ../../Common/ethernet/uIP/uip-1.0/uip/uip.o

Memory Configuration

Name             Origin             Length             Attributes
FLASH            0x0000000000000000 0x0000000000040000 xr
SRAM             0x0000000020000000 0x0000000000010000 xrw
*default*        0x0000000000000000 0xffffffffffffffff

Linker script and memory map

LOAD main.o
LOAD timertest.o
LOAD rit128x96x4.o
LOAD osram128x64x4.o
LOAD formike128x128x16.o
LOAD ./ParTest/ParTest.o
LOAD ../../Common/drivers/LuminaryMicro/ustdlib.o
LOAD ../../Common/Minimal/BlockQ.o
LOAD ../../Common/Minimal/blocktim.o
LOAD ../../Common/Minimal/death.o
LOAD ../../Common/Minimal/integer.o
LOAD ../../Common/Minimal/PollQ.o
LOAD ../../Common/Minimal/semtest.o
LOAD ../../Common/Minimal/GenQTest.o
LOAD ../../Common/Minimal/QPeek.o
LOAD ../../Common/Minimal/recmutex.o
LOAD ../../Common/Minimal/IntQueue.o
LOAD ./IntQueueTimer.o
LOAD ./webserver/uIP_Task.o
LOAD ./webserver/emac.o
LOAD ./webserver/httpd.o
LOAD ./webserver/httpd-cgi.o
LOAD ./webserver/httpd-fs.o
LOAD ./webserver/http-strings.o
LOAD ../../Common/ethernet/uIP/uip-1.0/uip/uip_arp.o
LOAD ../../Common/ethernet/uIP/uip-1.0/uip/psock.o
LOAD ../../Common/ethernet/uIP/uip-1.0/uip/timer.o
LOAD ../../Common/ethernet/uIP/uip-1.0/uip/uip.o
LOAD ../../Source/list.o
LOAD ../../Source/queue.o
LOAD ../../Source/tasks.o
LOAD ../../Source/portable/GCC/ARM_CM3/port.o
LOAD ../../Source/portable/MemMang/heap_2.o
LOAD startup.o
LOAD ../../Common/drivers/LuminaryMicro/arm-none-eabi-gcc/libdriver.a
LOAD ../../Common/drivers/LuminaryMicro/arm-none-eabi-gcc/libgr.a
START GROUP
LOAD /opt/arm-cortex-toolchain/lib/gcc/arm-none-eabi/4.3.3/thumb/libgcc.a
LOAD /opt/arm-cortex-toolchain/lib/gcc/arm-none-eabi/4.3.3/../../../../arm-none-eabi/lib/thumb/libg.a
LOAD /opt/arm-cortex-toolchain/lib/gcc/arm-none-eabi/4.3.3/../../../../arm-none-eabi/lib/thumb/libc.a
END GROUP

.text           0x0000000000000000    0x12a78
 *(.isr_vector)
 .isr_vector    0x0000000000000000       0xf0 startup.o
                0x0000000000000000                g_pfnVectors
 *(.text*)
 .text          0x00000000000000f0        0x0 main.o
 .text.main     0x00000000000000f0       0xc8 main.o
                0x00000000000000f0                main
 .text.prvSetupHardware
                0x00000000000001b8       0x60 main.o
 .text.vApplicationTickHook
                0x0000000000000218      0x14c main.o
                0x0000000000000218                vApplicationTickHook
 .text.vOLEDTask
                0x0000000000000364      0x1c0 main.o
 .text.vApplicationStackOverflowHook
                0x0000000000000524        0xc main.o
                0x0000000000000524                vApplicationStackOverflowHook
 .text          0x0000000000000530        0x0 timertest.o
 .text.vSetupHighFrequencyTimer
                0x0000000000000530       0x98 timertest.o
                0x0000000000000530                vSetupHighFrequencyTimer
 .text.Timer0IntHandler
                0x00000000000005c8       0x80 timertest.o
                0x00000000000005c8                Timer0IntHandler
 .text          0x0000000000000648        0x0 rit128x96x4.o
 .text.RITWriteCommand
                0x0000000000000648       0x74 rit128x96x4.o
 .text.RITWriteData
                0x00000000000006bc       0x78 rit128x96x4.o
 .text.RIT128x96x4Clear
                0x0000000000000734       0x88 rit128x96x4.o
                0x0000000000000734                RIT128x96x4Clear
 .text.RIT128x96x4StringDraw
                0x00000000000007bc      0x18c rit128x96x4.o
                0x00000000000007bc                RIT128x96x4StringDraw
 .text.RIT128x96x4ImageDraw
                0x0000000000000948       0xc0 rit128x96x4.o
                0x0000000000000948                RIT128x96x4ImageDraw
 .text.RIT128x96x4Enable
                0x0000000000000a08       0x80 rit128x96x4.o
                0x0000000000000a08                RIT128x96x4Enable
 .text.RIT128x96x4Disable
                0x0000000000000a88       0x64 rit128x96x4.o
                0x0000000000000a88                RIT128x96x4Disable
 .text.RIT128x96x4Init
                0x0000000000000aec      0x170 rit128x96x4.o
                0x0000000000000aec                RIT128x96x4Init
 .text.RIT128x96x4DisplayOn
                0x0000000000000c5c       0x50 rit128x96x4.o
                0x0000000000000c5c                RIT128x96x4DisplayOn
 .text.RIT128x96x4DisplayOff
                0x0000000000000cac       0x18 rit128x96x4.o
                0x0000000000000cac                RIT128x96x4DisplayOff
 .text          0x0000000000000cc4        0x0 osram128x64x4.o
 .text.OSRAMWriteCommand
                0x0000000000000cc4       0x68 osram128x64x4.o
 .text.OSRAMWriteData
                0x0000000000000d2c       0x68 osram128x64x4.o
 .text.OSRAM128x64x4Clear
                0x0000000000000d94       0x74 osram128x64x4.o
                0x0000000000000d94                OSRAM128x64x4Clear
 .text.OSRAM128x64x4StringDraw
                0x0000000000000e08      0x18c osram128x64x4.o
                0x0000000000000e08                OSRAM128x64x4StringDraw
 .text.OSRAM128x64x4ImageDraw
                0x0000000000000f94       0xc0 osram128x64x4.o
                0x0000000000000f94                OSRAM128x64x4ImageDraw
 .text.OSRAM128x64x4Enable
                0x0000000000001054       0x80 osram128x64x4.o
                0x0000000000001054                OSRAM128x64x4Enable
 .text.OSRAM128x64x4Disable
                0x00000000000010d4       0x68 osram128x64x4.o
                0x00000000000010d4                OSRAM128x64x4Disable
 .text.OSRAM128x64x4Init
                0x000000000000113c       0xf0 osram128x64x4.o
                0x000000000000113c                OSRAM128x64x4Init
 .text.OSRAM128x64x4DisplayOn
                0x000000000000122c       0x50 osram128x64x4.o
                0x000000000000122c                OSRAM128x64x4DisplayOn
 .text.OSRAM128x64x4DisplayOff
                0x000000000000127c       0x18 osram128x64x4.o
                0x000000000000127c                OSRAM128x64x4DisplayOff
 .text          0x0000000000001294        0x0 formike128x128x16.o
 .text.WriteData
                0x0000000000001294       0x34 formike128x128x16.o
 .text.WriteCommand
                0x00000000000012c8       0x48 formike128x128x16.o
 .text.Formike128x128x16Init
                0x0000000000001310      0x238 formike128x128x16.o
                0x0000000000001310                Formike128x128x16Init
 .text.Formike128x128x16BacklightOn
                0x0000000000001548       0x18 formike128x128x16.o
                0x0000000000001548                Formike128x128x16BacklightOn
 .text.Formike128x128x16BacklightOff
                0x0000000000001560       0x18 formike128x128x16.o
                0x0000000000001560                Formike128x128x16BacklightOff
 .text.Formike128x128x16PixelDraw
                0x0000000000001578       0x7c formike128x128x16.o
 .text.Formike128x128x16PixelDrawMultiple
                0x00000000000015f4      0x284 formike128x128x16.o
 .text.Formike128x128x16Flush
                0x0000000000001878       0x14 formike128x128x16.o
 .text.Formike128x128x16LineDrawH
                0x000000000000188c       0x98 formike128x128x16.o
 .text.Formike128x128x16LineDrawV
                0x0000000000001924       0x98 formike128x128x16.o
 .text.Formike128x128x16RectFill
                0x00000000000019bc       0xc0 formike128x128x16.o
 .text.Formike128x128x16ColorTranslate
                0x0000000000001a7c       0x40 formike128x128x16.o
 .text.vFormike128x128x16Clear
                0x0000000000001abc       0x5c formike128x128x16.o
                0x0000000000001abc                vFormike128x128x16Clear
 .text.vFormike128x128x16StringDraw
                0x0000000000001b18       0x5c formike128x128x16.o
                0x0000000000001b18                vFormike128x128x16StringDraw
 .text.vFormike128x128x16Init
                0x0000000000001b74       0x90 formike128x128x16.o
                0x0000000000001b74                vFormike128x128x16Init
 .text.vFormike128x128x16ImageDraw
                0x0000000000001c04       0x2c formike128x128x16.o
                0x0000000000001c04                vFormike128x128x16ImageDraw
 .text          0x0000000000001c30        0x0 ./ParTest/ParTest.o
 .text.vParTestInitialise
                0x0000000000001c30       0x3c ./ParTest/ParTest.o
                0x0000000000001c30                vParTestInitialise
 .text.vParTestSetLED
                0x0000000000001c6c       0x28 ./ParTest/ParTest.o
                0x0000000000001c6c                vParTestSetLED
 .text.uxParTestGetLED
                0x0000000000001c94       0x24 ./ParTest/ParTest.o
                0x0000000000001c94                uxParTestGetLED
 .text          0x0000000000001cb8        0x0 ../../Common/drivers/LuminaryMicro/ustdlib.o
 .text.uvsnprintf
                0x0000000000001cb8      0x4fc ../../Common/drivers/LuminaryMicro/ustdlib.o
                0x0000000000001cb8                uvsnprintf
 .text.usprintf
                0x00000000000021b4       0x34 ../../Common/drivers/LuminaryMicro/ustdlib.o
                0x00000000000021b4                usprintf
 .text.usnprintf
                0x00000000000021e8       0x34 ../../Common/drivers/LuminaryMicro/ustdlib.o
                0x00000000000021e8                usnprintf
 .text          0x000000000000221c        0x0 ../../Common/Minimal/BlockQ.o
 .text.vStartBlockingQueueTasks
                0x000000000000221c      0x1dc ../../Common/Minimal/BlockQ.o
                0x000000000000221c                vStartBlockingQueueTasks
 .text.vBlockingQueueProducer
                0x00000000000023f8       0x68 ../../Common/Minimal/BlockQ.o
 .text.vBlockingQueueConsumer
                0x0000000000002460       0x70 ../../Common/Minimal/BlockQ.o
 .text.xAreBlockingQueuesStillRunning
                0x00000000000024d0       0xa4 ../../Common/Minimal/BlockQ.o
                0x00000000000024d0                xAreBlockingQueuesStillRunning
 .text          0x0000000000002574        0x0 ../../Common/Minimal/blocktim.o
 .text.vCreateBlockTimeTasks
                0x0000000000002574       0x80 ../../Common/Minimal/blocktim.o
                0x0000000000002574                vCreateBlockTimeTasks
 .text.vPrimaryBlockTimeTestTask
                0x00000000000025f4      0x37c ../../Common/Minimal/blocktim.o
 .text.vSecondaryBlockTimeTestTask
                0x0000000000002970      0x10c ../../Common/Minimal/blocktim.o
 .text.xAreBlockTimeTestTasksStillRunning
                0x0000000000002a7c       0x70 ../../Common/Minimal/blocktim.o
                0x0000000000002a7c                xAreBlockTimeTestTasksStillRunning
 .text          0x0000000000002aec        0x0 ../../Common/Minimal/death.o
 .text.vCreateSuicidalTasks
                0x0000000000002aec       0x60 ../../Common/Minimal/death.o
                0x0000000000002aec                vCreateSuicidalTasks
 .text.vSuicidalTask
                0x0000000000002b4c       0x5c ../../Common/Minimal/death.o
 .text.vCreateTasks
                0x0000000000002ba8       0x84 ../../Common/Minimal/death.o
 .text.xIsCreateTaskStillRunning
                0x0000000000002c2c       0x84 ../../Common/Minimal/death.o
                0x0000000000002c2c                xIsCreateTaskStillRunning
 .text          0x0000000000002cb0        0x0 ../../Common/Minimal/integer.o
 .text.vStartIntegerMathTasks
                0x0000000000002cb0       0x5c ../../Common/Minimal/integer.o
                0x0000000000002cb0                vStartIntegerMathTasks
 .text.vCompeteingIntMathTask
                0x0000000000002d0c       0x7c ../../Common/Minimal/integer.o
 .text.xAreIntegerMathsTaskStillRunning
                0x0000000000002d88       0x58 ../../Common/Minimal/integer.o
                0x0000000000002d88                xAreIntegerMathsTaskStillRunning
 .text          0x0000000000002de0        0x0 ../../Common/Minimal/PollQ.o
 .text.vStartPolledQueueTasks
                0x0000000000002de0       0x7c ../../Common/Minimal/PollQ.o
                0x0000000000002de0                vStartPolledQueueTasks
 .text.vPolledQueueProducer
                0x0000000000002e5c       0x84 ../../Common/Minimal/PollQ.o
 .text.vPolledQueueConsumer
                0x0000000000002ee0       0x88 ../../Common/Minimal/PollQ.o
 .text.xArePollingQueuesStillRunning
                0x0000000000002f68       0x4c ../../Common/Minimal/PollQ.o
                0x0000000000002f68                xArePollingQueuesStillRunning
 .text          0x0000000000002fb4        0x0 ../../Common/Minimal/semtest.o
 .text.vStartSemaphoreTasks
                0x0000000000002fb4      0x190 ../../Common/Minimal/semtest.o
                0x0000000000002fb4                vStartSemaphoreTasks
 .text.prvSemaphoreTest
                0x0000000000003144      0x120 ../../Common/Minimal/semtest.o
 .text.xAreSemaphoreTasksStillRunning
                0x0000000000003264       0x6c ../../Common/Minimal/semtest.o
                0x0000000000003264                xAreSemaphoreTasksStillRunning
 .text          0x00000000000032d0        0x0 ../../Common/Minimal/GenQTest.o
 .text.vStartGenericQueueTasks
                0x00000000000032d0       0xd8 ../../Common/Minimal/GenQTest.o
                0x00000000000032d0                vStartGenericQueueTasks
 .text.prvSendFrontAndBackTest
                0x00000000000033a8      0x3ac ../../Common/Minimal/GenQTest.o
 .text.prvLowPriorityMutexTask
                0x0000000000003754      0x11c ../../Common/Minimal/GenQTest.o
 .text.prvMediumPriorityMutexTask
                0x0000000000003870       0x24 ../../Common/Minimal/GenQTest.o
 .text.prvHighPriorityMutexTask
                0x0000000000003894       0x5c ../../Common/Minimal/GenQTest.o
 .text.xAreGenericQueueTasksStillRunning
                0x00000000000038f0       0x64 ../../Common/Minimal/GenQTest.o
                0x00000000000038f0                xAreGenericQueueTasksStillRunning
 .text          0x0000000000003954        0x0 ../../Common/Minimal/QPeek.o
 .text.vStartQueuePeekTasks
                0x0000000000003954       0xc4 ../../Common/Minimal/QPeek.o
                0x0000000000003954                vStartQueuePeekTasks
 .text.prvHighestPriorityPeekTask
                0x0000000000003a18      0x124 ../../Common/Minimal/QPeek.o
 .text.prvHighPriorityPeekTask
                0x0000000000003b3c       0xa4 ../../Common/Minimal/QPeek.o
 .text.prvMediumPriorityPeekTask
                0x0000000000003be0       0x74 ../../Common/Minimal/QPeek.o
 .text.prvLowPriorityPeekTask
                0x0000000000003c54      0x13c ../../Common/Minimal/QPeek.o
 .text.xAreQueuePeekTasksStillRunning
                0x0000000000003d90       0x40 ../../Common/Minimal/QPeek.o
                0x0000000000003d90                xAreQueuePeekTasksStillRunning
 .text          0x0000000000003dd0        0x0 ../../Common/Minimal/recmutex.o
 .text.vStartRecursiveMutexTasks
                0x0000000000003dd0       0xa8 ../../Common/Minimal/recmutex.o
                0x0000000000003dd0                vStartRecursiveMutexTasks
 .text.prvRecursiveMutexControllingTask
                0x0000000000003e78       0xe0 ../../Common/Minimal/recmutex.o
 .text.prvRecursiveMutexBlockingTask
                0x0000000000003f58       0xa8 ../../Common/Minimal/recmutex.o
 .text.prvRecursiveMutexPollingTask
                0x0000000000004000       0x80 ../../Common/Minimal/recmutex.o
 .text.xAreRecursiveMutexTasksStillRunning
                0x0000000000004080       0xa0 ../../Common/Minimal/recmutex.o
                0x0000000000004080                xAreRecursiveMutexTasksStillRunning
 .text          0x0000000000004120        0x0 ../../Common/Minimal/IntQueue.o
 .text.vStartInterruptQueueTasks
                0x0000000000004120      0x13c ../../Common/Minimal/IntQueue.o
                0x0000000000004120                vStartInterruptQueueTasks
 .text.prvRecordValue_NormallyFull
                0x000000000000425c       0x38 ../../Common/Minimal/IntQueue.o
 .text.prvRecordValue_NormallyEmpty
                0x0000000000004294       0x38 ../../Common/Minimal/IntQueue.o
 .text.prvQueueAccessLogError
                0x00000000000042cc       0x28 ../../Common/Minimal/IntQueue.o
 .text.prvHigherPriorityNormallyEmptyTask
                0x00000000000042f4      0x15c ../../Common/Minimal/IntQueue.o
 .text.prvLowerPriorityNormallyEmptyTask
                0x0000000000004450       0xd0 ../../Common/Minimal/IntQueue.o
 .text.prv1stHigherPriorityNormallyFullTask
                0x0000000000004520      0x140 ../../Common/Minimal/IntQueue.o
 .text.prv2ndHigherPriorityNormallyFullTask
                0x0000000000004660       0xb8 ../../Common/Minimal/IntQueue.o
 .text.prvLowerPriorityNormallyFullTask
                0x0000000000004718       0xbc ../../Common/Minimal/IntQueue.o
 .text.xFirstTimerHandler
                0x00000000000047d4      0x190 ../../Common/Minimal/IntQueue.o
                0x00000000000047d4                xFirstTimerHandler
 .text.xSecondTimerHandler
                0x0000000000004964      0x268 ../../Common/Minimal/IntQueue.o
                0x0000000000004964                xSecondTimerHandler
 .text.xAreIntQueueTasksStillRunning
                0x0000000000004bcc       0xa4 ../../Common/Minimal/IntQueue.o
                0x0000000000004bcc                xAreIntQueueTasksStillRunning
 .text          0x0000000000004c70        0x0 ./IntQueueTimer.o
 .text.vInitialiseTimerForIntQueueTest
                0x0000000000004c70       0xbc ./IntQueueTimer.o
                0x0000000000004c70                vInitialiseTimerForIntQueueTest
 .text.vT2InterruptHandler
                0x0000000000004d2c       0x24 ./IntQueueTimer.o
                0x0000000000004d2c                vT2InterruptHandler
 .text.vT3InterruptHandler
                0x0000000000004d50       0x24 ./IntQueueTimer.o
                0x0000000000004d50                vT3InterruptHandler
 .text          0x0000000000004d74        0x0 ./webserver/uIP_Task.o
 .text.clock_init
                0x0000000000004d74        0xc ./webserver/uIP_Task.o
                0x0000000000004d74                clock_init
 .text.clock_time
                0x0000000000004d80       0x10 ./webserver/uIP_Task.o
                0x0000000000004d80                clock_time
 .text.vuIP_Task
                0x0000000000004d90      0x1dc ./webserver/uIP_Task.o
                0x0000000000004d90                vuIP_Task
 .text.prvENET_Send
                0x0000000000004f6c       0x20 ./webserver/uIP_Task.o
 .text.prvSetMACAddress
                0x0000000000004f8c       0xa4 ./webserver/uIP_Task.o
 .text.vApplicationProcessFormInput
                0x0000000000005030       0xd8 ./webserver/uIP_Task.o
                0x0000000000005030                vApplicationProcessFormInput
 .text          0x0000000000005108        0x0 ./webserver/emac.o
 .text.vInitEMAC
                0x0000000000005108      0x114 ./webserver/emac.o
                0x0000000000005108                vInitEMAC
 .text.uiGetEMACRxData
                0x000000000000521c       0x80 ./webserver/emac.o
                0x000000000000521c                uiGetEMACRxData
 .text.vInitialiseSend
                0x000000000000529c       0x18 ./webserver/emac.o
                0x000000000000529c                vInitialiseSend
 .text.vIncrementTxLength
                0x00000000000052b4       0x24 ./webserver/emac.o
                0x00000000000052b4                vIncrementTxLength
 .text.vSendBufferToMAC
                0x00000000000052d8       0x88 ./webserver/emac.o
                0x00000000000052d8                vSendBufferToMAC
 .text.vEMAC_ISR
                0x0000000000005360       0x68 ./webserver/emac.o
                0x0000000000005360                vEMAC_ISR
 .text.vMACHandleTask
                0x00000000000053c8      0x150 ./webserver/emac.o
                0x00000000000053c8                vMACHandleTask
 .text          0x0000000000005518        0x0 ./webserver/httpd.o
 .text.generate_part_of_file
                0x0000000000005518       0x6c ./webserver/httpd.o
 .text.send_file
                0x0000000000005584       0xa0 ./webserver/httpd.o
 .text.send_part_of_file
                0x0000000000005624       0x74 ./webserver/httpd.o
 .text.next_scriptstate
                0x0000000000005698       0x54 ./webserver/httpd.o
 .text.handle_script
                0x00000000000056ec      0x234 ./webserver/httpd.o
 .text.send_headers
                0x0000000000005920      0x2c0 ./webserver/httpd.o
 .text.handle_output
                0x0000000000005be0      0x188 ./webserver/httpd.o
 .text.handle_input
                0x0000000000005d68      0x1e8 ./webserver/httpd.o
 .text.handle_connection
                0x0000000000005f50       0x28 ./webserver/httpd.o
 .text.httpd_appcall
                0x0000000000005f78       0xec ./webserver/httpd.o
                0x0000000000005f78                httpd_appcall
 .text.httpd_init
                0x0000000000006064       0x10 ./webserver/httpd.o
                0x0000000000006064                httpd_init
 .text          0x0000000000006074        0x0 ./webserver/httpd-cgi.o
 .text.nullfunction
                0x0000000000006074       0x30 ./webserver/httpd-cgi.o
 .text.httpd_cgi
                0x00000000000060a4       0x64 ./webserver/httpd-cgi.o
                0x00000000000060a4                httpd_cgi
 .text.generate_file_stats
                0x0000000000006108       0x3c ./webserver/httpd-cgi.o
 .text.file_stats
                0x0000000000006144       0x80 ./webserver/httpd-cgi.o
 .text.generate_tcp_stats
                0x00000000000061c4      0x138 ./webserver/httpd-cgi.o
 .text.tcp_stats
                0x00000000000062fc       0xc4 ./webserver/httpd-cgi.o
 .text.generate_net_stats
                0x00000000000063c0       0x48 ./webserver/httpd-cgi.o
 .text.net_stats
                0x0000000000006408       0x98 ./webserver/httpd-cgi.o
 .text.generate_rtos_stats
                0x00000000000064a0       0x60 ./webserver/httpd-cgi.o
 .text.rtos_stats
                0x0000000000006500       0x70 ./webserver/httpd-cgi.o
 .text.generate_io_state
                0x0000000000006570       0x64 ./webserver/httpd-cgi.o
 .text.generate_runtime_stats
                0x00000000000065d4       0x60 ./webserver/httpd-cgi.o
 .text.run_time
                0x0000000000006634       0x74 ./webserver/httpd-cgi.o
 .text.led_io   0x00000000000066a8       0x74 ./webserver/httpd-cgi.o
 .text          0x000000000000671c        0x0 ./webserver/httpd-fs.o
 .text.httpd_fs_strcmp
                0x000000000000671c       0x70 ./webserver/httpd-fs.o
 .text.httpd_fs_open
                0x000000000000678c       0x84 ./webserver/httpd-fs.o
                0x000000000000678c                httpd_fs_open
 .text.httpd_fs_init
                0x0000000000006810       0x38 ./webserver/httpd-fs.o
                0x0000000000006810                httpd_fs_init
 .text.httpd_fs_count
                0x0000000000006848       0x60 ./webserver/httpd-fs.o
                0x0000000000006848                httpd_fs_count
 .text          0x00000000000068a8        0x0 ./webserver/http-strings.o
 .text          0x00000000000068a8        0x0 ../../Common/ethernet/uIP/uip-1.0/uip/uip_arp.o
 .text.uip_arp_init
                0x00000000000068a8       0x54 ../../Common/ethernet/uIP/uip-1.0/uip/uip_arp.o
                0x00000000000068a8                uip_arp_init
 .text.uip_arp_timer
                0x00000000000068fc       0x94 ../../Common/ethernet/uIP/uip-1.0/uip/uip_arp.o
                0x00000000000068fc                uip_arp_timer
 .text.uip_arp_update
                0x0000000000006990      0x1b4 ../../Common/ethernet/uIP/uip-1.0/uip/uip_arp.o
 .text.uip_arp_ipin
                0x0000000000006b44       0x94 ../../Common/ethernet/uIP/uip-1.0/uip/uip_arp.o
                0x0000000000006b44                uip_arp_ipin
 .text.uip_arp_arpin
                0x0000000000006bd8      0x27c ../../Common/ethernet/uIP/uip-1.0/uip/uip_arp.o
                0x0000000000006bd8                uip_arp_arpin
 .text.uip_arp_out
                0x0000000000006e54      0x31c ../../Common/ethernet/uIP/uip-1.0/uip/uip_arp.o
                0x0000000000006e54                uip_arp_out
 .text          0x0000000000007170        0x0 ../../Common/ethernet/uIP/uip-1.0/uip/psock.o
 .text.buf_setup
                0x0000000000007170       0x24 ../../Common/ethernet/uIP/uip-1.0/uip/psock.o
 .text.buf_bufdata
                0x0000000000007194      0x124 ../../Common/ethernet/uIP/uip-1.0/uip/psock.o
 .text.buf_bufto
                0x00000000000072b8       0xd4 ../../Common/ethernet/uIP/uip-1.0/uip/psock.o
 .text.send_data
                0x000000000000738c       0x7c ../../Common/ethernet/uIP/uip-1.0/uip/psock.o
 .text.data_acked
                0x0000000000007408       0x98 ../../Common/ethernet/uIP/uip-1.0/uip/psock.o
 .text.psock_send
                0x00000000000074a0       0xb4 ../../Common/ethernet/uIP/uip-1.0/uip/psock.o
                0x00000000000074a0                psock_send
 .text.psock_generator_send
                0x0000000000007554       0xd4 ../../Common/ethernet/uIP/uip-1.0/uip/psock.o
                0x0000000000007554                psock_generator_send
 .text.psock_datalen
                0x0000000000007628       0x24 ../../Common/ethernet/uIP/uip-1.0/uip/psock.o
                0x0000000000007628                psock_datalen
 .text.psock_newdata
                0x000000000000764c       0x60 ../../Common/ethernet/uIP/uip-1.0/uip/psock.o
                0x000000000000764c                psock_newdata
 .text.psock_readto
                0x00000000000076ac       0xf8 ../../Common/ethernet/uIP/uip-1.0/uip/psock.o
                0x00000000000076ac                psock_readto
 .text.psock_readbuf
                0x00000000000077a4      0x100 ../../Common/ethernet/uIP/uip-1.0/uip/psock.o
                0x00000000000077a4                psock_readbuf
 .text.psock_init
                0x00000000000078a4       0x48 ../../Common/ethernet/uIP/uip-1.0/uip/psock.o
                0x00000000000078a4                psock_init
 .text          0x00000000000078ec        0x0 ../../Common/ethernet/uIP/uip-1.0/uip/timer.o
 .text.timer_set
                0x00000000000078ec       0x24 ../../Common/ethernet/uIP/uip-1.0/uip/timer.o
                0x00000000000078ec                timer_set
 .text.timer_reset
                0x0000000000007910       0x20 ../../Common/ethernet/uIP/uip-1.0/uip/timer.o
                0x0000000000007910                timer_reset
 .text.timer_restart
                0x0000000000007930       0x1c ../../Common/ethernet/uIP/uip-1.0/uip/timer.o
                0x0000000000007930                timer_restart
 .text.timer_expired
                0x000000000000794c       0x2c ../../Common/ethernet/uIP/uip-1.0/uip/timer.o
                0x000000000000794c                timer_expired
 .text          0x0000000000007978        0x0 ../../Common/ethernet/uIP/uip-1.0/uip/uip.o
 .text.uip_setipid
                0x0000000000007978       0x20 ../../Common/ethernet/uIP/uip-1.0/uip/uip.o
                0x0000000000007978                uip_setipid
 .text.uip_add32
                0x0000000000007998       0xdc ../../Common/ethernet/uIP/uip-1.0/uip/uip.o
                0x0000000000007998                uip_add32
 .text.chksum   0x0000000000007a74       0x98 ../../Common/ethernet/uIP/uip-1.0/uip/uip.o
 .text.uip_chksum
                0x0000000000007b0c       0x30 ../../Common/ethernet/uIP/uip-1.0/uip/uip.o
                0x0000000000007b0c                uip_chksum
 .text.uip_ipchksum
                0x0000000000007b3c       0x4c ../../Common/ethernet/uIP/uip-1.0/uip/uip.o
                0x0000000000007b3c                uip_ipchksum
 .text.upper_layer_chksum
                0x0000000000007b88       0x98 ../../Common/ethernet/uIP/uip-1.0/uip/uip.o
 .text.uip_tcpchksum
                0x0000000000007c20       0x14 ../../Common/ethernet/uIP/uip-1.0/uip/uip.o
                0x0000000000007c20                uip_tcpchksum
 .text.uip_udpchksum
                0x0000000000007c34       0x14 ../../Common/ethernet/uIP/uip-1.0/uip/uip.o
                0x0000000000007c34                uip_udpchksum
 .text.uip_init
                0x0000000000007c48       0x98 ../../Common/ethernet/uIP/uip-1.0/uip/uip.o
                0x0000000000007c48                uip_init
 .text.uip_connect
                0x0000000000007ce0      0x1b8 ../../Common/ethernet/uIP/uip-1.0/uip/uip.o
                0x0000000000007ce0                uip_connect
 .text.uip_unlisten
                0x0000000000007e98       0x60 ../../Common/ethernet/uIP/uip-1.0/uip/uip.o
                0x0000000000007e98                uip_unlisten
 .text.uip_listen
                0x0000000000007ef8       0x5c ../../Common/ethernet/uIP/uip-1.0/uip/uip.o
                0x0000000000007ef8                uip_listen
 .text.uip_add_rcv_nxt
                0x0000000000007f54       0x54 ../../Common/ethernet/uIP/uip-1.0/uip/uip.o
 .text.uip_process
                0x0000000000007fa8     0x1b64 ../../Common/ethernet/uIP/uip-1.0/uip/uip.o
                0x0000000000007fa8                uip_process
 .text.htons    0x0000000000009b0c       0x30 ../../Common/ethernet/uIP/uip-1.0/uip/uip.o
                0x0000000000009b0c                htons
 .text.uip_send
                0x0000000000009b3c       0x44 ../../Common/ethernet/uIP/uip-1.0/uip/uip.o
                0x0000000000009b3c                uip_send
 .text          0x0000000000009b80        0x0 ../../Source/list.o
 .text.vListInitialise
                0x0000000000009b80       0x48 ../../Source/list.o
                0x0000000000009b80                vListInitialise
 .text.vListInitialiseItem
                0x0000000000009bc8       0x1c ../../Source/list.o
                0x0000000000009bc8                vListInitialiseItem
 .text.vListInsertEnd
                0x0000000000009be4       0x50 ../../Source/list.o
                0x0000000000009be4                vListInsertEnd
 .text.vListInsert
                0x0000000000009c34       0x74 ../../Source/list.o
                0x0000000000009c34                vListInsert
 .text.vListRemove
                0x0000000000009ca8       0x54 ../../Source/list.o
                0x0000000000009ca8                vListRemove
 .text          0x0000000000009cfc        0x0 ../../Source/queue.o
 .text.xQueueCreate
                0x0000000000009cfc       0xd4 ../../Source/queue.o
                0x0000000000009cfc                xQueueCreate
 .text.xQueueCreateMutex
                0x0000000000009dd0       0x98 ../../Source/queue.o
                0x0000000000009dd0                xQueueCreateMutex
 .text.xQueueGiveMutexRecursive
                0x0000000000009e68       0x58 ../../Source/queue.o
                0x0000000000009e68                xQueueGiveMutexRecursive
 .text.xQueueTakeMutexRecursive
                0x0000000000009ec0       0x60 ../../Source/queue.o
                0x0000000000009ec0                xQueueTakeMutexRecursive
 .text.xQueueGenericSend
                0x0000000000009f20      0x124 ../../Source/queue.o
                0x0000000000009f20                xQueueGenericSend
 .text.xQueueGenericSendFromISR
                0x000000000000a044       0x90 ../../Source/queue.o
                0x000000000000a044                xQueueGenericSendFromISR
 .text.xQueueGenericReceive
                0x000000000000a0d4      0x18c ../../Source/queue.o
                0x000000000000a0d4                xQueueGenericReceive
 .text.xQueueReceiveFromISR
                0x000000000000a260       0x94 ../../Source/queue.o
                0x000000000000a260                xQueueReceiveFromISR
 .text.uxQueueMessagesWaiting
                0x000000000000a2f4       0x24 ../../Source/queue.o
                0x000000000000a2f4                uxQueueMessagesWaiting
 .text.uxQueueMessagesWaitingFromISR
                0x000000000000a318       0x1c ../../Source/queue.o
                0x000000000000a318                uxQueueMessagesWaitingFromISR
 .text.vQueueDelete
                0x000000000000a334       0x28 ../../Source/queue.o
                0x000000000000a334                vQueueDelete
 .text.prvCopyDataToQueue
                0x000000000000a35c       0xc4 ../../Source/queue.o
 .text.prvCopyDataFromQueue
                0x000000000000a420       0x50 ../../Source/queue.o
 .text.prvUnlockQueue
                0x000000000000a470       0x98 ../../Source/queue.o
 .text.prvIsQueueEmpty
                0x000000000000a508       0x2c ../../Source/queue.o
 .text.xQueueIsQueueEmptyFromISR
                0x000000000000a534       0x24 ../../Source/queue.o
                0x000000000000a534                xQueueIsQueueEmptyFromISR
 .text.prvIsQueueFull
                0x000000000000a558       0x30 ../../Source/queue.o
 .text.xQueueIsQueueFullFromISR
                0x000000000000a588       0x28 ../../Source/queue.o
                0x000000000000a588                xQueueIsQueueFullFromISR
 .text.vQueueAddToRegistry
                0x000000000000a5b0       0x54 ../../Source/queue.o
                0x000000000000a5b0                vQueueAddToRegistry
 .text.vQueueUnregisterQueue
                0x000000000000a604       0x4c ../../Source/queue.o
 .text          0x000000000000a650        0x0 ../../Source/tasks.o
 .text.xTaskCreate
                0x000000000000a650      0x154 ../../Source/tasks.o
                0x000000000000a650                xTaskCreate
 .text.vTaskDelete
                0x000000000000a7a4       0xac ../../Source/tasks.o
                0x000000000000a7a4                vTaskDelete
 .text.vTaskDelayUntil
                0x000000000000a850       0xe0 ../../Source/tasks.o
                0x000000000000a850                vTaskDelayUntil
 .text.vTaskDelay
                0x000000000000a930       0x98 ../../Source/tasks.o
                0x000000000000a930                vTaskDelay
 .text.uxTaskPriorityGet
                0x000000000000a9c8       0x3c ../../Source/tasks.o
                0x000000000000a9c8                uxTaskPriorityGet
 .text.vTaskPrioritySet
                0x000000000000aa04      0x114 ../../Source/tasks.o
                0x000000000000aa04                vTaskPrioritySet
 .text.vTaskSuspend
                0x000000000000ab18       0x80 ../../Source/tasks.o
                0x000000000000ab18                vTaskSuspend
 .text.xTaskIsTaskSuspended
                0x000000000000ab98       0x4c ../../Source/tasks.o
                0x000000000000ab98                xTaskIsTaskSuspended
 .text.vTaskResume
                0x000000000000abe4       0x98 ../../Source/tasks.o
                0x000000000000abe4                vTaskResume
 .text.xTaskResumeFromISR
                0x000000000000ac7c       0xac ../../Source/tasks.o
                0x000000000000ac7c                xTaskResumeFromISR
 .text.vTaskStartScheduler
                0x000000000000ad28       0x70 ../../Source/tasks.o
                0x000000000000ad28                vTaskStartScheduler
 .text.vTaskEndScheduler
                0x000000000000ad98       0x20 ../../Source/tasks.o
                0x000000000000ad98                vTaskEndScheduler
 .text.vTaskSuspendAll
                0x000000000000adb8       0x1c ../../Source/tasks.o
                0x000000000000adb8                vTaskSuspendAll
 .text.xTaskResumeAll
                0x000000000000add4      0x130 ../../Source/tasks.o
                0x000000000000add4                xTaskResumeAll
 .text.xTaskGetTickCount
                0x000000000000af04       0x24 ../../Source/tasks.o
                0x000000000000af04                xTaskGetTickCount
 .text.uxTaskGetNumberOfTasks
                0x000000000000af28       0x14 ../../Source/tasks.o
                0x000000000000af28                uxTaskGetNumberOfTasks
 .text.vTaskList
                0x000000000000af3c       0xfc ../../Source/tasks.o
                0x000000000000af3c                vTaskList
 .text.vTaskGetRunTimeStats
                0x000000000000b038       0xfc ../../Source/tasks.o
                0x000000000000b038                vTaskGetRunTimeStats
 .text.vTaskStartTrace
                0x000000000000b134       0x4c ../../Source/tasks.o
                0x000000000000b134                vTaskStartTrace
 .text.ulTaskEndTrace
                0x000000000000b180       0x40 ../../Source/tasks.o
                0x000000000000b180                ulTaskEndTrace
 .text.vTaskIncrementTick
                0x000000000000b1c0      0x110 ../../Source/tasks.o
                0x000000000000b1c0                vTaskIncrementTick
 .text.vTaskSwitchContext
                0x000000000000b2d0      0x19c ../../Source/tasks.o
                0x000000000000b2d0                vTaskSwitchContext
 .text.vTaskPlaceOnEventList
                0x000000000000b46c       0xa8 ../../Source/tasks.o
                0x000000000000b46c                vTaskPlaceOnEventList
 .text.xTaskRemoveFromEventList
                0x000000000000b514       0xc4 ../../Source/tasks.o
                0x000000000000b514                xTaskRemoveFromEventList
 .text.vTaskSetTimeOutState
                0x000000000000b5d8       0x2c ../../Source/tasks.o
                0x000000000000b5d8                vTaskSetTimeOutState
 .text.xTaskCheckForTimeOut
                0x000000000000b604       0x98 ../../Source/tasks.o
                0x000000000000b604                xTaskCheckForTimeOut
 .text.vTaskMissedYield
                0x000000000000b69c       0x18 ../../Source/tasks.o
                0x000000000000b69c                vTaskMissedYield
 .text.prvIdleTask
                0x000000000000b6b4       0x10 ../../Source/tasks.o
 .text.prvInitialiseTCBVariables
                0x000000000000b6c4       0x80 ../../Source/tasks.o
 .text.prvInitialiseTaskLists
                0x000000000000b744       0x84 ../../Source/tasks.o
 .text.prvCheckTasksWaitingTermination
                0x000000000000b7c8       0x90 ../../Source/tasks.o
 .text.prvAllocateTCBAndStack
                0x000000000000b858       0x68 ../../Source/tasks.o
 .text.prvListTaskWithinSingleList
                0x000000000000b8c0       0xc0 ../../Source/tasks.o
 .text.prvGenerateRunTimeStatsForTasksInList
                0x000000000000b980      0x104 ../../Source/tasks.o
 .text.usTaskCheckFreeStackSpace
                0x000000000000ba84       0x44 ../../Source/tasks.o
                0x000000000000ba84                usTaskCheckFreeStackSpace
 .text.uxTaskGetStackHighWaterMark
                0x000000000000bac8       0x3c ../../Source/tasks.o
                0x000000000000bac8                uxTaskGetStackHighWaterMark
 .text.prvDeleteTCB
                0x000000000000bb04       0x20 ../../Source/tasks.o
 .text.xTaskGetCurrentTaskHandle
                0x000000000000bb24       0x14 ../../Source/tasks.o
                0x000000000000bb24                xTaskGetCurrentTaskHandle
 .text.vTaskPriorityInherit
                0x000000000000bb38       0xac ../../Source/tasks.o
                0x000000000000bb38                vTaskPriorityInherit
 .text.vTaskPriorityDisinherit
                0x000000000000bbe4       0x84 ../../Source/tasks.o
                0x000000000000bbe4                vTaskPriorityDisinherit
 .text          0x000000000000bc68        0x0 ../../Source/portable/GCC/ARM_CM3/port.o
 .text.pxPortInitialiseStack
                0x000000000000bc68       0x58 ../../Source/portable/GCC/ARM_CM3/port.o
                0x000000000000bc68                pxPortInitialiseStack
 .text.vPortSVCHandler
                0x000000000000bcc0       0x20 ../../Source/portable/GCC/ARM_CM3/port.o
                0x000000000000bcc0                vPortSVCHandler
 .text.vPortStartFirstTask
                0x000000000000bce0       0x10 ../../Source/portable/GCC/ARM_CM3/port.o
                0x000000000000bce0                vPortStartFirstTask
 .text.xPortStartScheduler
                0x000000000000bcf0       0x40 ../../Source/portable/GCC/ARM_CM3/port.o
                0x000000000000bcf0                xPortStartScheduler
 .text.vPortEndScheduler
                0x000000000000bd30        0xc ../../Source/portable/GCC/ARM_CM3/port.o
                0x000000000000bd30                vPortEndScheduler
 .text.vPortYieldFromISR
                0x000000000000bd3c       0x18 ../../Source/portable/GCC/ARM_CM3/port.o
                0x000000000000bd3c                vPortYieldFromISR
 .text.vPortEnterCritical
                0x000000000000bd54       0x24 ../../Source/portable/GCC/ARM_CM3/port.o
                0x000000000000bd54                vPortEnterCritical
 .text.vPortExitCritical
                0x000000000000bd78       0x2c ../../Source/portable/GCC/ARM_CM3/port.o
                0x000000000000bd78                vPortExitCritical
 .text.xPortPendSVHandler
                0x000000000000bda4       0x3c ../../Source/portable/GCC/ARM_CM3/port.o
                0x000000000000bda4                xPortPendSVHandler
 .text.xPortSysTickHandler
                0x000000000000bde0       0x34 ../../Source/portable/GCC/ARM_CM3/port.o
                0x000000000000bde0                xPortSysTickHandler
 .text.prvSetupTimerInterrupt
                0x000000000000be14       0x24 ../../Source/portable/GCC/ARM_CM3/port.o
 .text          0x000000000000be38        0x0 ../../Source/portable/MemMang/heap_2.o
 .text.pvPortMalloc
                0x000000000000be38      0x150 ../../Source/portable/MemMang/heap_2.o
                0x000000000000be38                pvPortMalloc
 .text.vPortFree
                0x000000000000bf88       0x68 ../../Source/portable/MemMang/heap_2.o
                0x000000000000bf88                vPortFree
 .text          0x000000000000bff0        0x0 startup.o
 .text.NmiSR    0x000000000000bff0        0x4 startup.o
 .text.FaultISR
                0x000000000000bff4        0x4 startup.o
 .text.IntDefaultHandler
                0x000000000000bff8        0x4 startup.o
 .text.uipprintf
                0x000000000000bffc        0xc startup.o
                0x000000000000bffc                uipprintf
 .text.ResetISR
                0x000000000000c008       0x5c startup.o
                0x000000000000c008                ResetISR
 .text          0x000000000000c064        0x0 ../../Common/drivers/LuminaryMicro/arm-none-eabi-gcc/libdriver.a(ethernet.o)
 .text.EthernetInitExpClk
                0x000000000000c064       0x14 ../../Common/drivers/LuminaryMicro/arm-none-eabi-gcc/libdriver.a(ethernet.o)
                0x000000000000c064                EthernetInitExpClk
 .text.EthernetConfigSet
                0x000000000000c078       0x30 ../../Common/drivers/LuminaryMicro/arm-none-eabi-gcc/libdriver.a(ethernet.o)
                0x000000000000c078                EthernetConfigSet
 .text.EthernetConfigGet
                0x000000000000c0a8       0x18 ../../Common/drivers/LuminaryMicro/arm-none-eabi-gcc/libdriver.a(ethernet.o)
                0x000000000000c0a8                EthernetConfigGet
 .text.EthernetMACAddrSet
                0x000000000000c0c0       0x38 ../../Common/drivers/LuminaryMicro/arm-none-eabi-gcc/libdriver.a(ethernet.o)
                0x000000000000c0c0                EthernetMACAddrSet
 .text.EthernetMACAddrGet
                0x000000000000c0f8       0x34 ../../Common/drivers/LuminaryMicro/arm-none-eabi-gcc/libdriver.a(ethernet.o)
                0x000000000000c0f8                EthernetMACAddrGet
 .text.EthernetEnable
                0x000000000000c12c       0x24 ../../Common/drivers/LuminaryMicro/arm-none-eabi-gcc/libdriver.a(ethernet.o)
                0x000000000000c12c                EthernetEnable
 .text.EthernetDisable
                0x000000000000c150       0x24 ../../Common/drivers/LuminaryMicro/arm-none-eabi-gcc/libdriver.a(ethernet.o)
                0x000000000000c150                EthernetDisable
 .text.EthernetPacketAvail
                0x000000000000c174        0xc ../../Common/drivers/LuminaryMicro/arm-none-eabi-gcc/libdriver.a(ethernet.o)
                0x000000000000c174                EthernetPacketAvail
 .text.EthernetSpaceAvail
                0x000000000000c180        0xc ../../Common/drivers/LuminaryMicro/arm-none-eabi-gcc/libdriver.a(ethernet.o)
                0x000000000000c180                EthernetSpaceAvail
 .text.EthernetPacketGetInternal
                0x000000000000c18c       0xa4 ../../Common/drivers/LuminaryMicro/arm-none-eabi-gcc/libdriver.a(ethernet.o)
 .text.EthernetPacketGetNonBlocking
                0x000000000000c230       0x18 ../../Common/drivers/LuminaryMicro/arm-none-eabi-gcc/libdriver.a(ethernet.o)
                0x000000000000c230                EthernetPacketGetNonBlocking
 .text.EthernetPacketGet
                0x000000000000c248       0x18 ../../Common/drivers/LuminaryMicro/arm-none-eabi-gcc/libdriver.a(ethernet.o)
                0x000000000000c248                EthernetPacketGet
 .text.EthernetPacketPutInternal
                0x000000000000c260       0x98 ../../Common/drivers/LuminaryMicro/arm-none-eabi-gcc/libdriver.a(ethernet.o)
 .text.EthernetPacketPutNonBlocking
                0x000000000000c2f8       0x14 ../../Common/drivers/LuminaryMicro/arm-none-eabi-gcc/libdriver.a(ethernet.o)
                0x000000000000c2f8                EthernetPacketPutNonBlocking
 .text.EthernetPacketPut
                0x000000000000c30c       0x18 ../../Common/drivers/LuminaryMicro/arm-none-eabi-gcc/libdriver.a(ethernet.o)
                0x000000000000c30c                EthernetPacketPut
 .text.EthernetIntEnable
                0x000000000000c324        0x8 ../../Common/drivers/LuminaryMicro/arm-none-eabi-gcc/libdriver.a(ethernet.o)
                0x000000000000c324                EthernetIntEnable
 .text.EthernetIntDisable
                0x000000000000c32c        0xc ../../Common/drivers/LuminaryMicro/arm-none-eabi-gcc/libdriver.a(ethernet.o)
                0x000000000000c32c                EthernetIntDisable
 .text.EthernetIntStatus
                0x000000000000c338        0xc ../../Common/drivers/LuminaryMicro/arm-none-eabi-gcc/libdriver.a(ethernet.o)
                0x000000000000c338                EthernetIntStatus
 .text.EthernetIntClear
                0x000000000000c344        0x4 ../../Common/drivers/LuminaryMicro/arm-none-eabi-gcc/libdriver.a(ethernet.o)
                0x000000000000c344                EthernetIntClear
 .text.EthernetPHYWrite
                0x000000000000c348       0x30 ../../Common/drivers/LuminaryMicro/arm-none-eabi-gcc/libdriver.a(ethernet.o)
                0x000000000000c348                EthernetPHYWrite
 .text.EthernetPHYRead
                0x000000000000c378       0x28 ../../Common/drivers/LuminaryMicro/arm-none-eabi-gcc/libdriver.a(ethernet.o)
                0x000000000000c378                EthernetPHYRead
 .text.EthernetIntUnregister
                0x000000000000c3a0       0x10 ../../Common/drivers/LuminaryMicro/arm-none-eabi-gcc/libdriver.a(ethernet.o)
                0x000000000000c3a0                EthernetIntUnregister
 .text.EthernetIntRegister
                0x000000000000c3b0       0x10 ../../Common/drivers/LuminaryMicro/arm-none-eabi-gcc/libdriver.a(ethernet.o)
                0x000000000000c3b0                EthernetIntRegister
 .text          0x000000000000c3c0        0x0 ../../Common/drivers/LuminaryMicro/arm-none-eabi-gcc/libdriver.a(flash.o)
 .text.FlashUsecGet
                0x000000000000c3c0        0xc ../../Common/drivers/LuminaryMicro/arm-none-eabi-gcc/libdriver.a(flash.o)
                0x000000000000c3c0                FlashUsecGet
 .text.FlashUsecSet
                0x000000000000c3cc        0xc ../../Common/drivers/LuminaryMicro/arm-none-eabi-gcc/libdriver.a(flash.o)
                0x000000000000c3cc                FlashUsecSet
 .text.FlashErase
                0x000000000000c3d8       0x3c ../../Common/drivers/LuminaryMicro/arm-none-eabi-gcc/libdriver.a(flash.o)
                0x000000000000c3d8                FlashErase
 .text.FlashProgram
                0x000000000000c414       0x58 ../../Common/drivers/LuminaryMicro/arm-none-eabi-gcc/libdriver.a(flash.o)
                0x000000000000c414                FlashProgram
 .text.FlashProtectGet
                0x000000000000c46c       0xb0 ../../Common/drivers/LuminaryMicro/arm-none-eabi-gcc/libdriver.a(flash.o)
                0x000000000000c46c                FlashProtectGet
 .text.FlashProtectSet
                0x000000000000c51c      0x120 ../../Common/drivers/LuminaryMicro/arm-none-eabi-gcc/libdriver.a(flash.o)
                0x000000000000c51c                FlashProtectSet
 .text.FlashProtectSave
                0x000000000000c63c       0x58 ../../Common/drivers/LuminaryMicro/arm-none-eabi-gcc/libdriver.a(flash.o)
                0x000000000000c63c                FlashProtectSave
 .text.FlashUserGet
                0x000000000000c694       0x3c ../../Common/drivers/LuminaryMicro/arm-none-eabi-gcc/libdriver.a(flash.o)
                0x000000000000c694                FlashUserGet
 .text.FlashUserSet
                0x000000000000c6d0       0x3c ../../Common/drivers/LuminaryMicro/arm-none-eabi-gcc/libdriver.a(flash.o)
                0x000000000000c6d0                FlashUserSet
 .text.FlashUserSave
                0x000000000000c70c       0x64 ../../Common/drivers/LuminaryMicro/arm-none-eabi-gcc/libdriver.a(flash.o)
                0x000000000000c70c                FlashUserSave
 .text.FlashIntEnable
                0x000000000000c770       0x10 ../../Common/drivers/LuminaryMicro/arm-none-eabi-gcc/libdriver.a(flash.o)
                0x000000000000c770                FlashIntEnable
 .text.FlashIntDisable
                0x000000000000c780       0x10 ../../Common/drivers/LuminaryMicro/arm-none-eabi-gcc/libdriver.a(flash.o)
                0x000000000000c780                FlashIntDisable
 .text.FlashIntGetStatus
                0x000000000000c790       0x18 ../../Common/drivers/LuminaryMicro/arm-none-eabi-gcc/libdriver.a(flash.o)
                0x000000000000c790                FlashIntGetStatus
 .text.FlashIntClear
                0x000000000000c7a8        0xc ../../Common/drivers/LuminaryMicro/arm-none-eabi-gcc/libdriver.a(flash.o)
                0x000000000000c7a8                FlashIntClear
 .text.FlashIntUnregister
                0x000000000000c7b4       0x10 ../../Common/drivers/LuminaryMicro/arm-none-eabi-gcc/libdriver.a(flash.o)
                0x000000000000c7b4                FlashIntUnregister
 .text.FlashIntRegister
                0x000000000000c7c4       0x14 ../../Common/drivers/LuminaryMicro/arm-none-eabi-gcc/libdriver.a(flash.o)
                0x000000000000c7c4                FlashIntRegister
 .text          0x000000000000c7d8        0x0 ../../Common/drivers/LuminaryMicro/arm-none-eabi-gcc/libdriver.a(gpio.o)
 .text.GPIOGetIntNumber
                0x000000000000c7d8       0xa4 ../../Common/drivers/LuminaryMicro/arm-none-eabi-gcc/libdriver.a(gpio.o)
 .text.GPIODirModeSet
                0x000000000000c87c       0x44 ../../Common/drivers/LuminaryMicro/arm-none-eabi-gcc/libdriver.a(gpio.o)
                0x000000000000c87c                GPIODirModeSet
 .text.GPIODirModeGet
                0x000000000000c8c0       0x20 ../../Common/drivers/LuminaryMicro/arm-none-eabi-gcc/libdriver.a(gpio.o)
                0x000000000000c8c0                GPIODirModeGet
 .text.GPIOIntTypeSet
                0x000000000000c8e0       0x70 ../../Common/drivers/LuminaryMicro/arm-none-eabi-gcc/libdriver.a(gpio.o)
                0x000000000000c8e0                GPIOIntTypeSet
 .text.GPIOIntTypeGet
                0x000000000000c950       0x30 ../../Common/drivers/LuminaryMicro/arm-none-eabi-gcc/libdriver.a(gpio.o)
                0x000000000000c950                GPIOIntTypeGet
 .text.GPIOPadConfigSet
                0x000000000000c980      0x130 ../../Common/drivers/LuminaryMicro/arm-none-eabi-gcc/libdriver.a(gpio.o)
                0x000000000000c980                GPIOPadConfigSet
 .text.GPIOPadConfigGet
                0x000000000000cab0       0x78 ../../Common/drivers/LuminaryMicro/arm-none-eabi-gcc/libdriver.a(gpio.o)
                0x000000000000cab0                GPIOPadConfigGet
 .text.GPIOPinIntEnable
                0x000000000000cb28        0xc ../../Common/drivers/LuminaryMicro/arm-none-eabi-gcc/libdriver.a(gpio.o)
                0x000000000000cb28                GPIOPinIntEnable
 .text.GPIOPinIntDisable
                0x000000000000cb34       0x10 ../../Common/drivers/LuminaryMicro/arm-none-eabi-gcc/libdriver.a(gpio.o)
                0x000000000000cb34                GPIOPinIntDisable
 .text.GPIOPinIntStatus
                0x000000000000cb44       0x10 ../../Common/drivers/LuminaryMicro/arm-none-eabi-gcc/libdriver.a(gpio.o)
                0x000000000000cb44                GPIOPinIntStatus
 .text.GPIOPinIntClear
                0x000000000000cb54        0x8 ../../Common/drivers/LuminaryMicro/arm-none-eabi-gcc/libdriver.a(gpio.o)
                0x000000000000cb54                GPIOPinIntClear
 .text.GPIOPinRead
                0x000000000000cb5c        0x8 ../../Common/drivers/LuminaryMicro/arm-none-eabi-gcc/libdriver.a(gpio.o)
                0x000000000000cb5c                GPIOPinRead
 .text.GPIOPinWrite
                0x000000000000cb64        0x8 ../../Common/drivers/LuminaryMicro/arm-none-eabi-gcc/libdriver.a(gpio.o)
                0x000000000000cb64                GPIOPinWrite
 .text.GPIOPinTypeADC
                0x000000000000cb6c       0x1c ../../Common/drivers/LuminaryMicro/arm-none-eabi-gcc/libdriver.a(gpio.o)
                0x000000000000cb6c                GPIOPinTypeADC
 .text.GPIOPinTypeCAN
                0x000000000000cb88       0x1c ../../Common/drivers/LuminaryMicro/arm-none-eabi-gcc/libdriver.a(gpio.o)
                0x000000000000cb88                GPIOPinTypeCAN
 .text.GPIOPinTypeComparator
                0x000000000000cba4       0x1c ../../Common/drivers/LuminaryMicro/arm-none-eabi-gcc/libdriver.a(gpio.o)
                0x000000000000cba4                GPIOPinTypeComparator
 .text.GPIOPinTypeGPIOInput
                0x000000000000cbc0       0x1c ../../Common/drivers/LuminaryMicro/arm-none-eabi-gcc/libdriver.a(gpio.o)
                0x000000000000cbc0                GPIOPinTypeGPIOInput
 .text.GPIOPinTypeGPIOOutput
                0x000000000000cbdc       0x1c ../../Common/drivers/LuminaryMicro/arm-none-eabi-gcc/libdriver.a(gpio.o)
                0x000000000000cbdc                GPIOPinTypeGPIOOutput
 .text.GPIOPinTypeGPIOOutputOD
                0x000000000000cbf8       0x1c ../../Common/drivers/LuminaryMicro/arm-none-eabi-gcc/libdriver.a(gpio.o)
                0x000000000000cbf8                GPIOPinTypeGPIOOutputOD
 .text.GPIOPinTypeI2C
                0x000000000000cc14       0x1c ../../Common/drivers/LuminaryMicro/arm-none-eabi-gcc/libdriver.a(gpio.o)
                0x000000000000cc14                GPIOPinTypeI2C
 .text.GPIOPinTypePWM
                0x000000000000cc30       0x1c ../../Common/drivers/LuminaryMicro/arm-none-eabi-gcc/libdriver.a(gpio.o)
                0x000000000000cc30                GPIOPinTypePWM
 .text.GPIOPinTypeQEI
                0x000000000000cc4c       0x1c ../../Common/drivers/LuminaryMicro/arm-none-eabi-gcc/libdriver.a(gpio.o)
                0x000000000000cc4c                GPIOPinTypeQEI
 .text.GPIOPinTypeSSI
                0x000000000000cc68       0x1c ../../Common/drivers/LuminaryMicro/arm-none-eabi-gcc/libdriver.a(gpio.o)
                0x000000000000cc68                GPIOPinTypeSSI
 .text.GPIOPinTypeTimer
                0x000000000000cc84       0x1c ../../Common/drivers/LuminaryMicro/arm-none-eabi-gcc/libdriver.a(gpio.o)
                0x000000000000cc84                GPIOPinTypeTimer
 .text.GPIOPinTypeUART
                0x000000000000cca0       0x1c ../../Common/drivers/LuminaryMicro/arm-none-eabi-gcc/libdriver.a(gpio.o)
                0x000000000000cca0                GPIOPinTypeUART
 .text.GPIOPinTypeUSBDigital
                0x000000000000ccbc       0x1c ../../Common/drivers/LuminaryMicro/arm-none-eabi-gcc/libdriver.a(gpio.o)
                0x000000000000ccbc                GPIOPinTypeUSBDigital
 .text.GPIOPortIntUnregister
                0x000000000000ccd8       0x14 ../../Common/drivers/LuminaryMicro/arm-none-eabi-gcc/libdriver.a(gpio.o)
                0x000000000000ccd8                GPIOPortIntUnregister
 .text.GPIOPortIntRegister
                0x000000000000ccec       0x18 ../../Common/drivers/LuminaryMicro/arm-none-eabi-gcc/libdriver.a(gpio.o)
                0x000000000000ccec                GPIOPortIntRegister
 .text          0x000000000000cd04        0x0 ../../Common/drivers/LuminaryMicro/arm-none-eabi-gcc/libdriver.a(interrupt.o)
 .text.IntDefaultHandler
                0x000000000000cd04        0x4 ../../Common/drivers/LuminaryMicro/arm-none-eabi-gcc/libdriver.a(interrupt.o)
 .text.IntRegister
                0x000000000000cd08       0x3c ../../Common/drivers/LuminaryMicro/arm-none-eabi-gcc/libdriver.a(interrupt.o)
                0x000000000000cd08                IntRegister
 .text.IntUnregister
                0x000000000000cd44       0x14 ../../Common/drivers/LuminaryMicro/arm-none-eabi-gcc/libdriver.a(interrupt.o)
                0x000000000000cd44                IntUnregister
 .text.IntPriorityGroupingSet
                0x000000000000cd58       0x1c ../../Common/drivers/LuminaryMicro/arm-none-eabi-gcc/libdriver.a(interrupt.o)
                0x000000000000cd58                IntPriorityGroupingSet
 .text.IntPriorityGroupingGet
                0x000000000000cd74       0x24 ../../Common/drivers/LuminaryMicro/arm-none-eabi-gcc/libdriver.a(interrupt.o)
                0x000000000000cd74                IntPriorityGroupingGet
 .text.IntPrioritySet
                0x000000000000cd98       0x28 ../../Common/drivers/LuminaryMicro/arm-none-eabi-gcc/libdriver.a(interrupt.o)
                0x000000000000cd98                IntPrioritySet
 .text.IntPriorityGet
                0x000000000000cdc0       0x20 ../../Common/drivers/LuminaryMicro/arm-none-eabi-gcc/libdriver.a(interrupt.o)
                0x000000000000cdc0                IntPriorityGet
 .text.IntEnable
                0x000000000000cde0       0x74 ../../Common/drivers/LuminaryMicro/arm-none-eabi-gcc/libdriver.a(interrupt.o)
                0x000000000000cde0                IntEnable
 .text.IntDisable
                0x000000000000ce54       0x74 ../../Common/drivers/LuminaryMicro/arm-none-eabi-gcc/libdriver.a(interrupt.o)
                0x000000000000ce54                IntDisable
 .text.IntMasterDisable
                0x000000000000cec8        0xc ../../Common/drivers/LuminaryMicro/arm-none-eabi-gcc/libdriver.a(interrupt.o)
                0x000000000000cec8                IntMasterDisable
 .text.IntMasterEnable
                0x000000000000ced4        0xc ../../Common/drivers/LuminaryMicro/arm-none-eabi-gcc/libdriver.a(interrupt.o)
                0x000000000000ced4                IntMasterEnable
 .text          0x000000000000cee0        0x0 ../../Common/drivers/LuminaryMicro/arm-none-eabi-gcc/libdriver.a(ssi.o)
 .text.SSIConfigSetExpClk
                0x000000000000cee0       0x48 ../../Common/drivers/LuminaryMicro/arm-none-eabi-gcc/libdriver.a(ssi.o)
                0x000000000000cee0                SSIConfigSetExpClk
 .text.SSIEnable
                0x000000000000cf28        0xc ../../Common/drivers/LuminaryMicro/arm-none-eabi-gcc/libdriver.a(ssi.o)
                0x000000000000cf28                SSIEnable
 .text.SSIDisable
                0x000000000000cf34        0xc ../../Common/drivers/LuminaryMicro/arm-none-eabi-gcc/libdriver.a(ssi.o)
                0x000000000000cf34                SSIDisable
 .text.SSIIntEnable
                0x000000000000cf40        0x8 ../../Common/drivers/LuminaryMicro/arm-none-eabi-gcc/libdriver.a(ssi.o)
                0x000000000000cf40                SSIIntEnable
 .text.SSIIntDisable
                0x000000000000cf48        0xc ../../Common/drivers/LuminaryMicro/arm-none-eabi-gcc/libdriver.a(ssi.o)
                0x000000000000cf48                SSIIntDisable
 .text.SSIIntStatus
                0x000000000000cf54        0xc ../../Common/drivers/LuminaryMicro/arm-none-eabi-gcc/libdriver.a(ssi.o)
                0x000000000000cf54                SSIIntStatus
 .text.SSIIntClear
                0x000000000000cf60        0x4 ../../Common/drivers/LuminaryMicro/arm-none-eabi-gcc/libdriver.a(ssi.o)
                0x000000000000cf60                SSIIntClear
 .text.SSIDataPut
                0x000000000000cf64       0x10 ../../Common/drivers/LuminaryMicro/arm-none-eabi-gcc/libdriver.a(ssi.o)
                0x000000000000cf64                SSIDataPut
 .text.SSIDataPutNonBlocking
                0x000000000000cf74       0x10 ../../Common/drivers/LuminaryMicro/arm-none-eabi-gcc/libdriver.a(ssi.o)
                0x000000000000cf74                SSIDataPutNonBlocking
 .text.SSIDataGet
                0x000000000000cf84       0x14 ../../Common/drivers/LuminaryMicro/arm-none-eabi-gcc/libdriver.a(ssi.o)
                0x000000000000cf84                SSIDataGet
 .text.SSIDataGetNonBlocking
                0x000000000000cf98       0x14 ../../Common/drivers/LuminaryMicro/arm-none-eabi-gcc/libdriver.a(ssi.o)
                0x000000000000cf98                SSIDataGetNonBlocking
 .text.SSIDMAEnable
                0x000000000000cfac        0x8 ../../Common/drivers/LuminaryMicro/arm-none-eabi-gcc/libdriver.a(ssi.o)
                0x000000000000cfac                SSIDMAEnable
 .text.SSIDMADisable
                0x000000000000cfb4        0xc ../../Common/drivers/LuminaryMicro/arm-none-eabi-gcc/libdriver.a(ssi.o)
                0x000000000000cfb4                SSIDMADisable
 .text.SSIIntUnregister
                0x000000000000cfc0       0x20 ../../Common/drivers/LuminaryMicro/arm-none-eabi-gcc/libdriver.a(ssi.o)
                0x000000000000cfc0                SSIIntUnregister
 .text.SSIIntRegister
                0x000000000000cfe0       0x20 ../../Common/drivers/LuminaryMicro/arm-none-eabi-gcc/libdriver.a(ssi.o)
                0x000000000000cfe0                SSIIntRegister
 .text          0x000000000000d000        0x0 ../../Common/drivers/LuminaryMicro/arm-none-eabi-gcc/libdriver.a(sysctl.o)
 .text.SysCtlSRAMSizeGet
                0x000000000000d000       0x14 ../../Common/drivers/LuminaryMicro/arm-none-eabi-gcc/libdriver.a(sysctl.o)
                0x000000000000d000                SysCtlSRAMSizeGet
 .text.SysCtlFlashSizeGet
                0x000000000000d014       0x14 ../../Common/drivers/LuminaryMicro/arm-none-eabi-gcc/libdriver.a(sysctl.o)
                0x000000000000d014                SysCtlFlashSizeGet
 .text.SysCtlPinPresent
                0x000000000000d028       0x14 ../../Common/drivers/LuminaryMicro/arm-none-eabi-gcc/libdriver.a(sysctl.o)
                0x000000000000d028                SysCtlPinPresent
 .text.SysCtlPeripheralPresent
                0x000000000000d03c       0x28 ../../Common/drivers/LuminaryMicro/arm-none-eabi-gcc/libdriver.a(sysctl.o)
                0x000000000000d03c                SysCtlPeripheralPresent
 .text.SysCtlPeripheralReset
                0x000000000000d064       0x44 ../../Common/drivers/LuminaryMicro/arm-none-eabi-gcc/libdriver.a(sysctl.o)
                0x000000000000d064                SysCtlPeripheralReset
 .text.SysCtlPeripheralEnable
                0x000000000000d0a8       0x24 ../../Common/drivers/LuminaryMicro/arm-none-eabi-gcc/libdriver.a(sysctl.o)
                0x000000000000d0a8                SysCtlPeripheralEnable
 .text.SysCtlPeripheralDisable
                0x000000000000d0cc       0x24 ../../Common/drivers/LuminaryMicro/arm-none-eabi-gcc/libdriver.a(sysctl.o)
                0x000000000000d0cc                SysCtlPeripheralDisable
 .text.SysCtlPeripheralSleepEnable
                0x000000000000d0f0       0x24 ../../Common/drivers/LuminaryMicro/arm-none-eabi-gcc/libdriver.a(sysctl.o)
                0x000000000000d0f0                SysCtlPeripheralSleepEnable
 .text.SysCtlPeripheralSleepDisable
                0x000000000000d114       0x24 ../../Common/drivers/LuminaryMicro/arm-none-eabi-gcc/libdriver.a(sysctl.o)
                0x000000000000d114                SysCtlPeripheralSleepDisable
 .text.SysCtlPeripheralDeepSleepEnable
                0x000000000000d138       0x24 ../../Common/drivers/LuminaryMicro/arm-none-eabi-gcc/libdriver.a(sysctl.o)
                0x000000000000d138                SysCtlPeripheralDeepSleepEnable
 .text.SysCtlPeripheralDeepSleepDisable
                0x000000000000d15c       0x24 ../../Common/drivers/LuminaryMicro/arm-none-eabi-gcc/libdriver.a(sysctl.o)
                0x000000000000d15c                SysCtlPeripheralDeepSleepDisable
 .text.SysCtlPeripheralClockGating
                0x000000000000d180       0x20 ../../Common/drivers/LuminaryMicro/arm-none-eabi-gcc/libdriver.a(sysctl.o)
                0x000000000000d180                SysCtlPeripheralClockGating
 .text.SysCtlIntEnable
                0x000000000000d1a0       0x10 ../../Common/drivers/LuminaryMicro/arm-none-eabi-gcc/libdriver.a(sysctl.o)
                0x000000000000d1a0                SysCtlIntEnable
 .text.SysCtlIntDisable
                0x000000000000d1b0       0x10 ../../Common/drivers/LuminaryMicro/arm-none-eabi-gcc/libdriver.a(sysctl.o)
                0x000000000000d1b0                SysCtlIntDisable
 .text.SysCtlIntClear
                0x000000000000d1c0        0xc ../../Common/drivers/LuminaryMicro/arm-none-eabi-gcc/libdriver.a(sysctl.o)
                0x000000000000d1c0                SysCtlIntClear
 .text.SysCtlIntStatus
                0x000000000000d1cc       0x18 ../../Common/drivers/LuminaryMicro/arm-none-eabi-gcc/libdriver.a(sysctl.o)
                0x000000000000d1cc                SysCtlIntStatus
 .text.SysCtlLDOSet
                0x000000000000d1e4        0xc ../../Common/drivers/LuminaryMicro/arm-none-eabi-gcc/libdriver.a(sysctl.o)
                0x000000000000d1e4                SysCtlLDOSet
 .text.SysCtlLDOGet
                0x000000000000d1f0        0xc ../../Common/drivers/LuminaryMicro/arm-none-eabi-gcc/libdriver.a(sysctl.o)
                0x000000000000d1f0                SysCtlLDOGet
 .text.SysCtlLDOConfigSet
                0x000000000000d1fc        0xc ../../Common/drivers/LuminaryMicro/arm-none-eabi-gcc/libdriver.a(sysctl.o)
                0x000000000000d1fc                SysCtlLDOConfigSet
 .text.SysCtlReset
                0x000000000000d208       0x10 ../../Common/drivers/LuminaryMicro/arm-none-eabi-gcc/libdriver.a(sysctl.o)
                0x000000000000d208                SysCtlReset
 .text.SysCtlResetCauseGet
                0x000000000000d218        0xc ../../Common/drivers/LuminaryMicro/arm-none-eabi-gcc/libdriver.a(sysctl.o)
                0x000000000000d218                SysCtlResetCauseGet
 .text.SysCtlResetCauseClear
                0x000000000000d224       0x10 ../../Common/drivers/LuminaryMicro/arm-none-eabi-gcc/libdriver.a(sysctl.o)
                0x000000000000d224                SysCtlResetCauseClear
 .text.SysCtlBrownOutConfigSet
                0x000000000000d234       0x10 ../../Common/drivers/LuminaryMicro/arm-none-eabi-gcc/libdriver.a(sysctl.o)
                0x000000000000d234                SysCtlBrownOutConfigSet
 .text.SysCtlDelay
                0x000000000000d244        0x8 ../../Common/drivers/LuminaryMicro/arm-none-eabi-gcc/libdriver.a(sysctl.o)
                0x000000000000d244                SysCtlDelay
 .text.SysCtlClockSet
                0x000000000000d24c      0x168 ../../Common/drivers/LuminaryMicro/arm-none-eabi-gcc/libdriver.a(sysctl.o)
                0x000000000000d24c                SysCtlClockSet
 .text.SysCtlClockGet
                0x000000000000d3b4      0x150 ../../Common/drivers/LuminaryMicro/arm-none-eabi-gcc/libdriver.a(sysctl.o)
                0x000000000000d3b4                SysCtlClockGet
 .text.SysCtlPWMClockSet
                0x000000000000d504       0x14 ../../Common/drivers/LuminaryMicro/arm-none-eabi-gcc/libdriver.a(sysctl.o)
                0x000000000000d504                SysCtlPWMClockSet
 .text.SysCtlPWMClockGet
                0x000000000000d518       0x18 ../../Common/drivers/LuminaryMicro/arm-none-eabi-gcc/libdriver.a(sysctl.o)
                0x000000000000d518                SysCtlPWMClockGet
 .text.SysCtlADCSpeedSet
                0x000000000000d530       0x34 ../../Common/drivers/LuminaryMicro/arm-none-eabi-gcc/libdriver.a(sysctl.o)
                0x000000000000d530                SysCtlADCSpeedSet
 .text.SysCtlADCSpeedGet
                0x000000000000d564       0x10 ../../Common/drivers/LuminaryMicro/arm-none-eabi-gcc/libdriver.a(sysctl.o)
                0x000000000000d564                SysCtlADCSpeedGet
 .text.SysCtlIOSCVerificationSet
                0x000000000000d574       0x20 ../../Common/drivers/LuminaryMicro/arm-none-eabi-gcc/libdriver.a(sysctl.o)
                0x000000000000d574                SysCtlIOSCVerificationSet
 .text.SysCtlMOSCVerificationSet
                0x000000000000d594       0x20 ../../Common/drivers/LuminaryMicro/arm-none-eabi-gcc/libdriver.a(sysctl.o)
                0x000000000000d594                SysCtlMOSCVerificationSet
 .text.SysCtlPLLVerificationSet
                0x000000000000d5b4       0x20 ../../Common/drivers/LuminaryMicro/arm-none-eabi-gcc/libdriver.a(sysctl.o)
                0x000000000000d5b4                SysCtlPLLVerificationSet
 .text.SysCtlClkVerificationClear
                0x000000000000d5d4       0x10 ../../Common/drivers/LuminaryMicro/arm-none-eabi-gcc/libdriver.a(sysctl.o)
                0x000000000000d5d4                SysCtlClkVerificationClear
 .text.SysCtlGPIOAHBEnable
                0x000000000000d5e4       0x10 ../../Common/drivers/LuminaryMicro/arm-none-eabi-gcc/libdriver.a(sysctl.o)
                0x000000000000d5e4                SysCtlGPIOAHBEnable
 .text.SysCtlGPIOAHBDisable
                0x000000000000d5f4       0x14 ../../Common/drivers/LuminaryMicro/arm-none-eabi-gcc/libdriver.a(sysctl.o)
                0x000000000000d5f4                SysCtlGPIOAHBDisable
 .text.SysCtlUSBPLLEnable
                0x000000000000d608       0x10 ../../Common/drivers/LuminaryMicro/arm-none-eabi-gcc/libdriver.a(sysctl.o)
                0x000000000000d608                SysCtlUSBPLLEnable
 .text.SysCtlUSBPLLDisable
                0x000000000000d618       0x10 ../../Common/drivers/LuminaryMicro/arm-none-eabi-gcc/libdriver.a(sysctl.o)
                0x000000000000d618                SysCtlUSBPLLDisable
 .text.SysCtlDeepSleep
                0x000000000000d628       0x20 ../../Common/drivers/LuminaryMicro/arm-none-eabi-gcc/libdriver.a(sysctl.o)
                0x000000000000d628                SysCtlDeepSleep
 .text.SysCtlSleep
                0x000000000000d648        0x8 ../../Common/drivers/LuminaryMicro/arm-none-eabi-gcc/libdriver.a(sysctl.o)
                0x000000000000d648                SysCtlSleep
 .text.SysCtlIntUnregister
                0x000000000000d650       0x10 ../../Common/drivers/LuminaryMicro/arm-none-eabi-gcc/libdriver.a(sysctl.o)
                0x000000000000d650                SysCtlIntUnregister
 .text.SysCtlIntRegister
                0x000000000000d660       0x14 ../../Common/drivers/LuminaryMicro/arm-none-eabi-gcc/libdriver.a(sysctl.o)
                0x000000000000d660                SysCtlIntRegister
 .text          0x000000000000d674        0x0 ../../Common/drivers/LuminaryMicro/arm-none-eabi-gcc/libdriver.a(timer.o)
 .text.TimerEnable
                0x000000000000d674       0x10 ../../Common/drivers/LuminaryMicro/arm-none-eabi-gcc/libdriver.a(timer.o)
                0x000000000000d674                TimerEnable
 .text.TimerDisable
                0x000000000000d684       0x14 ../../Common/drivers/LuminaryMicro/arm-none-eabi-gcc/libdriver.a(timer.o)
                0x000000000000d684                TimerDisable
 .text.TimerConfigure
                0x000000000000d698       0x20 ../../Common/drivers/LuminaryMicro/arm-none-eabi-gcc/libdriver.a(timer.o)
                0x000000000000d698                TimerConfigure
 .text.TimerControlLevel
                0x000000000000d6b8       0x28 ../../Common/drivers/LuminaryMicro/arm-none-eabi-gcc/libdriver.a(timer.o)
                0x000000000000d6b8                TimerControlLevel
 .text.TimerControlTrigger
                0x000000000000d6e0       0x28 ../../Common/drivers/LuminaryMicro/arm-none-eabi-gcc/libdriver.a(timer.o)
                0x000000000000d6e0                TimerControlTrigger
 .text.TimerControlEvent
                0x000000000000d708       0x20 ../../Common/drivers/LuminaryMicro/arm-none-eabi-gcc/libdriver.a(timer.o)
                0x000000000000d708                TimerControlEvent
 .text.TimerControlStall
                0x000000000000d728       0x28 ../../Common/drivers/LuminaryMicro/arm-none-eabi-gcc/libdriver.a(timer.o)
                0x000000000000d728                TimerControlStall
 .text.TimerRTCEnable
                0x000000000000d750        0xc ../../Common/drivers/LuminaryMicro/arm-none-eabi-gcc/libdriver.a(timer.o)
                0x000000000000d750                TimerRTCEnable
 .text.TimerRTCDisable
                0x000000000000d75c        0xc ../../Common/drivers/LuminaryMicro/arm-none-eabi-gcc/libdriver.a(timer.o)
                0x000000000000d75c                TimerRTCDisable
 .text.TimerPrescaleSet
                0x000000000000d768       0x14 ../../Common/drivers/LuminaryMicro/arm-none-eabi-gcc/libdriver.a(timer.o)
                0x000000000000d768                TimerPrescaleSet
 .text.TimerPrescaleGet
                0x000000000000d77c        0xc ../../Common/drivers/LuminaryMicro/arm-none-eabi-gcc/libdriver.a(timer.o)
                0x000000000000d77c                TimerPrescaleGet
 .text.TimerLoadSet
                0x000000000000d788       0x14 ../../Common/drivers/LuminaryMicro/arm-none-eabi-gcc/libdriver.a(timer.o)
                0x000000000000d788                TimerLoadSet
 .text.TimerLoadGet
                0x000000000000d79c        0xc ../../Common/drivers/LuminaryMicro/arm-none-eabi-gcc/libdriver.a(timer.o)
                0x000000000000d79c                TimerLoadGet
 .text.TimerValueGet
                0x000000000000d7a8        0xc ../../Common/drivers/LuminaryMicro/arm-none-eabi-gcc/libdriver.a(timer.o)
                0x000000000000d7a8                TimerValueGet
 .text.TimerMatchSet
                0x000000000000d7b4       0x14 ../../Common/drivers/LuminaryMicro/arm-none-eabi-gcc/libdriver.a(timer.o)
                0x000000000000d7b4                TimerMatchSet
 .text.TimerMatchGet
                0x000000000000d7c8        0xc ../../Common/drivers/LuminaryMicro/arm-none-eabi-gcc/libdriver.a(timer.o)
                0x000000000000d7c8                TimerMatchGet
 .text.TimerIntEnable
                0x000000000000d7d4        0x8 ../../Common/drivers/LuminaryMicro/arm-none-eabi-gcc/libdriver.a(timer.o)
                0x000000000000d7d4                TimerIntEnable
 .text.TimerIntDisable
                0x000000000000d7dc        0xc ../../Common/drivers/LuminaryMicro/arm-none-eabi-gcc/libdriver.a(timer.o)
                0x000000000000d7dc                TimerIntDisable
 .text.TimerIntStatus
                0x000000000000d7e8        0xc ../../Common/drivers/LuminaryMicro/arm-none-eabi-gcc/libdriver.a(timer.o)
                0x000000000000d7e8                TimerIntStatus
 .text.TimerIntClear
                0x000000000000d7f4        0x4 ../../Common/drivers/LuminaryMicro/arm-none-eabi-gcc/libdriver.a(timer.o)
                0x000000000000d7f4                TimerIntClear
 .text.TimerIntUnregister
                0x000000000000d7f8       0x58 ../../Common/drivers/LuminaryMicro/arm-none-eabi-gcc/libdriver.a(timer.o)
                0x000000000000d7f8                TimerIntUnregister
 .text.TimerQuiesce
                0x000000000000d850       0x44 ../../Common/drivers/LuminaryMicro/arm-none-eabi-gcc/libdriver.a(timer.o)
                0x000000000000d850                TimerQuiesce
 .text.TimerIntRegister
                0x000000000000d894       0x60 ../../Common/drivers/LuminaryMicro/arm-none-eabi-gcc/libdriver.a(timer.o)
                0x000000000000d894                TimerIntRegister
 .text          0x000000000000d8f4       0x14 ../../Common/drivers/LuminaryMicro/arm-none-eabi-gcc/libdriver.a(cpu.o)
                0x000000000000d8f4                CPUcpsid
                0x000000000000d904                CPUwfi
                0x000000000000d8fc                CPUcpsie
 .text          0x000000000000d908        0x0 ../../Common/drivers/LuminaryMicro/arm-none-eabi-gcc/libgr.a(context.o)
 .text.GrContextInit
                0x000000000000d908       0x24 ../../Common/drivers/LuminaryMicro/arm-none-eabi-gcc/libgr.a(context.o)
                0x000000000000d908                GrContextInit
 .text.GrContextClipRegionSet
                0x000000000000d92c       0x88 ../../Common/drivers/LuminaryMicro/arm-none-eabi-gcc/libgr.a(context.o)
                0x000000000000d92c                GrContextClipRegionSet
 .text          0x000000000000d9b4        0x0 ../../Common/drivers/LuminaryMicro/arm-none-eabi-gcc/libgr.a(fontcmss12.o)
 .text          0x000000000000d9b4        0x0 ../../Common/drivers/LuminaryMicro/arm-none-eabi-gcc/libgr.a(image.o)
 .text.GrImageDraw
                0x000000000000d9b4      0x37c ../../Common/drivers/LuminaryMicro/arm-none-eabi-gcc/libgr.a(image.o)
                0x000000000000d9b4                GrImageDraw
 .text          0x000000000000dd30        0x0 ../../Common/drivers/LuminaryMicro/arm-none-eabi-gcc/libgr.a(rectangle.o)
 .text.GrRectFill
                0x000000000000dd30       0xb4 ../../Common/drivers/LuminaryMicro/arm-none-eabi-gcc/libgr.a(rectangle.o)
                0x000000000000dd30                GrRectFill
 .text.GrRectDraw
                0x000000000000dde4       0x64 ../../Common/drivers/LuminaryMicro/arm-none-eabi-gcc/libgr.a(rectangle.o)
                0x000000000000dde4                GrRectDraw
 .text          0x000000000000de48        0x0 ../../Common/drivers/LuminaryMicro/arm-none-eabi-gcc/libgr.a(string.o)
 .text.GrStringWidthGet
                0x000000000000de48       0x58 ../../Common/drivers/LuminaryMicro/arm-none-eabi-gcc/libgr.a(string.o)
                0x000000000000de48                GrStringWidthGet
 .text.GrStringDraw
                0x000000000000dea0      0x34c ../../Common/drivers/LuminaryMicro/arm-none-eabi-gcc/libgr.a(string.o)
                0x000000000000dea0                GrStringDraw
 .text          0x000000000000e1ec        0x0 ../../Common/drivers/LuminaryMicro/arm-none-eabi-gcc/libgr.a(line.o)
 .text.GrLineDrawH
                0x000000000000e1ec       0x58 ../../Common/drivers/LuminaryMicro/arm-none-eabi-gcc/libgr.a(line.o)
                0x000000000000e1ec                GrLineDrawH
 .text.GrLineDrawV
                0x000000000000e244       0x58 ../../Common/drivers/LuminaryMicro/arm-none-eabi-gcc/libgr.a(line.o)
                0x000000000000e244                GrLineDrawV
 .text.GrClipCodeGet
                0x000000000000e29c       0x38 ../../Common/drivers/LuminaryMicro/arm-none-eabi-gcc/libgr.a(line.o)
 .text.GrLineDraw
                0x000000000000e2d4      0x19c ../../Common/drivers/LuminaryMicro/arm-none-eabi-gcc/libgr.a(line.o)
                0x000000000000e2d4                GrLineDraw
 .text          0x000000000000e470       0x58 /opt/arm-cortex-toolchain/lib/gcc/arm-none-eabi/4.3.3/../../../../arm-none-eabi/lib/thumb/libg.a(lib_a-memcmp.o)
                0x000000000000e470                memcmp
 .text          0x000000000000e4c8       0x88 /opt/arm-cortex-toolchain/lib/gcc/arm-none-eabi/4.3.3/../../../../arm-none-eabi/lib/thumb/libg.a(lib_a-memcpy.o)
                0x000000000000e4c8                memcpy
 .text          0x000000000000e550       0xb0 /opt/arm-cortex-toolchain/lib/gcc/arm-none-eabi/4.3.3/../../../../arm-none-eabi/lib/thumb/libg.a(lib_a-memset.o)
                0x000000000000e550                memset
 .text          0x000000000000e600       0x4c /opt/arm-cortex-toolchain/lib/gcc/arm-none-eabi/4.3.3/../../../../arm-none-eabi/lib/thumb/libg.a(lib_a-strcat.o)
                0x000000000000e600                strcat
 .text          0x000000000000e64c       0xc4 /opt/arm-cortex-toolchain/lib/gcc/arm-none-eabi/4.3.3/../../../../arm-none-eabi/lib/thumb/libg.a(lib_a-strchr.o)
                0x000000000000e64c                strchr
 .text          0x000000000000e710       0x48 /opt/arm-cortex-toolchain/lib/gcc/arm-none-eabi/4.3.3/../../../../arm-none-eabi/lib/thumb/libg.a(lib_a-strcpy.o)
                0x000000000000e710                strcpy
 .text          0x000000000000e758       0x60 /opt/arm-cortex-toolchain/lib/gcc/arm-none-eabi/4.3.3/../../../../arm-none-eabi/lib/thumb/libg.a(lib_a-strlen.o)
                0x000000000000e758                strlen
 .text          0x000000000000e7b8       0x9c /opt/arm-cortex-toolchain/lib/gcc/arm-none-eabi/4.3.3/../../../../arm-none-eabi/lib/thumb/libg.a(lib_a-strncmp.o)
                0x000000000000e7b8                strncmp
 .text          0x000000000000e854       0x74 /opt/arm-cortex-toolchain/lib/gcc/arm-none-eabi/4.3.3/../../../../arm-none-eabi/lib/thumb/libg.a(lib_a-strncpy.o)
                0x000000000000e854                strncpy
 .text          0x000000000000e8c8       0x34 /opt/arm-cortex-toolchain/lib/gcc/arm-none-eabi/4.3.3/../../../../arm-none-eabi/lib/thumb/libg.a(lib_a-strrchr.o)
                0x000000000000e8c8                strrchr
 .text          0x000000000000e8fc      0x5a4 /opt/arm-cortex-toolchain/lib/gcc/arm-none-eabi/4.3.3/../../../../arm-none-eabi/lib/thumb/libg.a(lib_a-strstr.o)
                0x000000000000ec48                strstr
 .text          0x000000000000eea0       0x8c /opt/arm-cortex-toolchain/lib/gcc/arm-none-eabi/4.3.3/../../../../arm-none-eabi/lib/thumb/libg.a(lib_a-memchr.o)
                0x000000000000eea0                memchr
 *(.rodata*)
 .rodata.pucBasicBitmap
                0x000000000000ef2c      0xc81 main.o
                0x000000000000ef2c                pucBasicBitmap
 .rodata.pucGrLibBitmap
                0x000000000000fbad      0x6a7 main.o
                0x000000000000fbad                pucGrLibBitmap
 .rodata        0x0000000000010254      0x10c main.o
 .rodata.pcWelcomeMessage
                0x0000000000010360        0x4 main.o
                0x0000000000010360                pcWelcomeMessage
 .rodata.g_pucRIT128x96x4VerticalInc
                0x0000000000010364        0x2 rit128x96x4.o
 .rodata.g_pucRIT128x96x4HorizontalInc
                0x0000000000010366        0x2 rit128x96x4.o
 .rodata.g_pucFont
                0x0000000000010368      0x1e0 rit128x96x4.o
 .rodata.g_pucRIT128x96x4Init
                0x0000000000010548       0x4f rit128x96x4.o
 .rodata.pucCommand2.1537
                0x0000000000010597        0x3 rit128x96x4.o
 .rodata.pucCommand1.1536
                0x000000000001059a        0x3 rit128x96x4.o
 .rodata.pucCommand1.1721
                0x000000000001059d        0x2 rit128x96x4.o
 .rodata.g_pucOSRAM128x64x4VerticalInc
                0x000000000001059f        0x2 osram128x64x4.o
 .rodata.g_pucOSRAM128x64x4HorizontalInc
                0x00000000000105a1        0x2 osram128x64x4.o
 .rodata.g_pucFont
                0x00000000000105a3      0x1e0 osram128x64x4.o
 .rodata.g_pucOSRAM128x64x4Init
                0x0000000000010783       0x4e osram128x64x4.o
 .rodata.pucCommand2.1524
                0x00000000000107d1        0x3 osram128x64x4.o
 .rodata.pucCommand1.1523
                0x00000000000107d4        0x3 osram128x64x4.o
 .rodata.pucCommand1.1681
                0x00000000000107d7        0x3 osram128x64x4.o
 *fill*         0x00000000000107da        0x2 00
 .rodata.g_sFormike128x128x16
                0x00000000000107dc       0x28 formike128x128x16.o
                0x00000000000107dc                g_sFormike128x128x16
 .rodata.xRectangle.2307
                0x0000000000010804        0x8 formike128x128x16.o
 .rodata        0x000000000001080c       0x14 formike128x128x16.o
 .rodata        0x0000000000010820       0x1c ../../Common/drivers/LuminaryMicro/ustdlib.o
 .rodata.g_pcHex
                0x000000000001083c        0x4 ../../Common/drivers/LuminaryMicro/ustdlib.o
 .rodata        0x0000000000010840       0x30 ../../Common/Minimal/BlockQ.o
 .rodata        0x0000000000010870       0x24 ../../Common/Minimal/blocktim.o
 .rodata.uxMaxNumberOfExtraTasksRunning
                0x0000000000010894        0x4 ../../Common/Minimal/death.o
 .rodata        0x0000000000010898       0x18 ../../Common/Minimal/death.o
 .rodata        0x00000000000108b0        0x8 ../../Common/Minimal/integer.o
 .rodata        0x00000000000108b8       0x20 ../../Common/Minimal/PollQ.o
 .rodata        0x00000000000108d8       0x40 ../../Common/Minimal/semtest.o
 .rodata        0x0000000000010918       0x40 ../../Common/Minimal/GenQTest.o
 .rodata        0x0000000000010958       0x34 ../../Common/Minimal/QPeek.o
 .rodata        0x000000000001098c       0x28 ../../Common/Minimal/recmutex.o
 .rodata        0x00000000000109b4       0x40 ../../Common/Minimal/IntQueue.o
 .rodata        0x00000000000109f4       0x10 ./webserver/uIP_Task.o
 .rodata        0x0000000000010a04        0x4 ./webserver/emac.o
 .rodata        0x0000000000010a08      0x154 ./webserver/httpd-cgi.o
 .rodata.file   0x0000000000010b5c        0x8 ./webserver/httpd-cgi.o
 .rodata.tcp    0x0000000000010b64        0x8 ./webserver/httpd-cgi.o
 .rodata.net    0x0000000000010b6c        0x8 ./webserver/httpd-cgi.o
 .rodata.rtos   0x0000000000010b74        0x8 ./webserver/httpd-cgi.o
 .rodata.run    0x0000000000010b7c        0x8 ./webserver/httpd-cgi.o
 .rodata.io     0x0000000000010b84        0x8 ./webserver/httpd-cgi.o
 .rodata.closed
                0x0000000000010b8c        0x7 ./webserver/httpd-cgi.o
 .rodata.syn_rcvd
                0x0000000000010b93        0x9 ./webserver/httpd-cgi.o
 .rodata.syn_sent
                0x0000000000010b9c        0x9 ./webserver/httpd-cgi.o
 .rodata.established
                0x0000000000010ba5        0xc ./webserver/httpd-cgi.o
 .rodata.fin_wait_1
                0x0000000000010bb1        0xb ./webserver/httpd-cgi.o
 .rodata.fin_wait_2
                0x0000000000010bbc        0xb ./webserver/httpd-cgi.o
 .rodata.closing
                0x0000000000010bc7        0x8 ./webserver/httpd-cgi.o
 .rodata.time_wait
                0x0000000000010bcf        0xa ./webserver/httpd-cgi.o
 .rodata.last_ack
                0x0000000000010bd9        0x9 ./webserver/httpd-cgi.o
 .rodata.data_404_html
                0x0000000000010be2       0xab ./webserver/httpd-fs.o
 .rodata.data_index_html
                0x0000000000010c8d      0x1a4 ./webserver/httpd-fs.o
 .rodata.data_index_shtml
                0x0000000000010e31      0x347 ./webserver/httpd-fs.o
 .rodata.data_io_shtml
                0x0000000000011178      0x32f ./webserver/httpd-fs.o
 .rodata.data_runtime_shtml
                0x00000000000114a7      0x33f ./webserver/httpd-fs.o
 .rodata.data_stats_shtml
                0x00000000000117e6      0x559 ./webserver/httpd-fs.o
 .rodata.data_tcp_shtml
                0x0000000000011d3f      0x2d8 ./webserver/httpd-fs.o
 *fill*         0x0000000000012017        0x1 00
 .rodata.file_404_html
                0x0000000000012018       0x14 ./webserver/httpd-fs.o
                0x0000000000012018                file_404_html
 .rodata.file_index_html
                0x000000000001202c       0x14 ./webserver/httpd-fs.o
                0x000000000001202c                file_index_html
 .rodata.file_index_shtml
                0x0000000000012040       0x14 ./webserver/httpd-fs.o
                0x0000000000012040                file_index_shtml
 .rodata.file_io_shtml
                0x0000000000012054       0x14 ./webserver/httpd-fs.o
                0x0000000000012054                file_io_shtml
 .rodata.file_runtime_shtml
                0x0000000000012068       0x14 ./webserver/httpd-fs.o
                0x0000000000012068                file_runtime_shtml
 .rodata.file_stats_shtml
                0x000000000001207c       0x14 ./webserver/httpd-fs.o
                0x000000000001207c                file_stats_shtml
 .rodata.file_tcp_shtml
                0x0000000000012090       0x14 ./webserver/httpd-fs.o
                0x0000000000012090                file_tcp_shtml
 .rodata.http_http
                0x00000000000120a4        0x8 ./webserver/http-strings.o
                0x00000000000120a4                http_http
 .rodata.http_200
                0x00000000000120ac        0x5 ./webserver/http-strings.o
                0x00000000000120ac                http_200
 .rodata.http_301
                0x00000000000120b1        0x5 ./webserver/http-strings.o
                0x00000000000120b1                http_301
 .rodata.http_302
                0x00000000000120b6        0x5 ./webserver/http-strings.o
                0x00000000000120b6                http_302
 .rodata.http_get
                0x00000000000120bb        0x5 ./webserver/http-strings.o
                0x00000000000120bb                http_get
 .rodata.http_10
                0x00000000000120c0        0x9 ./webserver/http-strings.o
                0x00000000000120c0                http_10
 .rodata.http_11
                0x00000000000120c9        0x9 ./webserver/http-strings.o
                0x00000000000120c9                http_11
 .rodata.http_content_type
                0x00000000000120d2        0xf ./webserver/http-strings.o
                0x00000000000120d2                http_content_type
 .rodata.http_texthtml
                0x00000000000120e1        0xa ./webserver/http-strings.o
                0x00000000000120e1                http_texthtml
 .rodata.http_location
                0x00000000000120eb        0xb ./webserver/http-strings.o
                0x00000000000120eb                http_location
 .rodata.http_host
                0x00000000000120f6        0x7 ./webserver/http-strings.o
                0x00000000000120f6                http_host
 .rodata.http_crnl
                0x00000000000120fd        0x3 ./webserver/http-strings.o
                0x00000000000120fd                http_crnl
 .rodata.http_index_html
                0x0000000000012100        0xc ./webserver/http-strings.o
                0x0000000000012100                http_index_html
 .rodata.http_404_html
                0x000000000001210c        0xa ./webserver/http-strings.o
                0x000000000001210c                http_404_html
 .rodata.http_referer
                0x0000000000012116        0x9 ./webserver/http-strings.o
                0x0000000000012116                http_referer
 .rodata.http_header_200
                0x000000000001211f       0x54 ./webserver/http-strings.o
                0x000000000001211f                http_header_200
 .rodata.http_header_404
                0x0000000000012173       0x5b ./webserver/http-strings.o
                0x0000000000012173                http_header_404
 .rodata.http_content_type_plain
                0x00000000000121ce       0x1d ./webserver/http-strings.o
                0x00000000000121ce                http_content_type_plain
 .rodata.http_content_type_html
                0x00000000000121eb       0x1c ./webserver/http-strings.o
                0x00000000000121eb                http_content_type_html
 .rodata.http_content_type_css
                0x0000000000012207       0x1b ./webserver/http-strings.o
                0x0000000000012207                http_content_type_css
 .rodata.http_content_type_text
                0x0000000000012222       0x1c ./webserver/http-strings.o
                0x0000000000012222                http_content_type_text
 .rodata.http_content_type_png
                0x000000000001223e       0x1c ./webserver/http-strings.o
                0x000000000001223e                http_content_type_png
 .rodata.http_content_type_gif
                0x000000000001225a       0x1c ./webserver/http-strings.o
                0x000000000001225a                http_content_type_gif
 .rodata.http_content_type_jpg
                0x0000000000012276       0x1d ./webserver/http-strings.o
                0x0000000000012276                http_content_type_jpg
 .rodata.http_content_type_binary
                0x0000000000012293       0x2b ./webserver/http-strings.o
                0x0000000000012293                http_content_type_binary
 .rodata.http_html
                0x00000000000122be        0x6 ./webserver/http-strings.o
                0x00000000000122be                http_html
 .rodata.http_shtml
                0x00000000000122c4        0x7 ./webserver/http-strings.o
                0x00000000000122c4                http_shtml
 .rodata.http_htm
                0x00000000000122cb        0x5 ./webserver/http-strings.o
                0x00000000000122cb                http_htm
 .rodata.http_css
                0x00000000000122d0        0x5 ./webserver/http-strings.o
                0x00000000000122d0                http_css
 .rodata.http_png
                0x00000000000122d5        0x5 ./webserver/http-strings.o
                0x00000000000122d5                http_png
 .rodata.http_gif
                0x00000000000122da        0x5 ./webserver/http-strings.o
                0x00000000000122da                http_gif
 .rodata.http_jpg
                0x00000000000122df        0x5 ./webserver/http-strings.o
                0x00000000000122df                http_jpg
 .rodata.http_text
                0x00000000000122e4        0x5 ./webserver/http-strings.o
                0x00000000000122e4                http_text
 .rodata.http_txt
                0x00000000000122e9        0x5 ./webserver/http-strings.o
                0x00000000000122e9                http_txt
 .rodata.broadcast_ethaddr
                0x00000000000122ee        0x6 ../../Common/ethernet/uIP/uip-1.0/uip/uip_arp.o
 .rodata.broadcast_ipaddr
                0x00000000000122f4        0x4 ../../Common/ethernet/uIP/uip-1.0/uip/uip_arp.o
 .rodata        0x00000000000122f8       0x14 ../../Common/ethernet/uIP/uip-1.0/uip/psock.o
 .rodata.all_ones_addr
                0x000000000001230c        0x4 ../../Common/ethernet/uIP/uip-1.0/uip/uip.o
 .rodata.all_zeroes_addr
                0x0000000000012310        0x4 ../../Common/ethernet/uIP/uip-1.0/uip/uip.o
 .rodata        0x0000000000012314       0x50 ../../Source/tasks.o
 .rodata.ucExpectedStackBytes.3404
                0x0000000000012364       0x14 ../../Source/tasks.o
 .rodata.ulKernelPriority
                0x0000000000012378        0x4 ../../Source/portable/GCC/ARM_CM3/port.o
                0x0000000000012378                ulKernelPriority
 .rodata.heapSTRUCT_SIZE
                0x000000000001237c        0x2 ../../Source/portable/MemMang/heap_2.o
 *fill*         0x000000000001237e        0x2 00
 .rodata.g_pulFMPPERegs
                0x0000000000012380       0x10 ../../Common/drivers/LuminaryMicro/arm-none-eabi-gcc/libdriver.a(flash.o)
 .rodata.g_pulFMPRERegs
                0x0000000000012390       0x10 ../../Common/drivers/LuminaryMicro/arm-none-eabi-gcc/libdriver.a(flash.o)
 .rodata.g_pulPriority
                0x00000000000123a0       0x20 ../../Common/drivers/LuminaryMicro/arm-none-eabi-gcc/libdriver.a(interrupt.o)
 .rodata.g_pulRegs
                0x00000000000123c0       0x40 ../../Common/drivers/LuminaryMicro/arm-none-eabi-gcc/libdriver.a(interrupt.o)
 .rodata.g_pulDCRegs
                0x0000000000012400       0x10 ../../Common/drivers/LuminaryMicro/arm-none-eabi-gcc/libdriver.a(sysctl.o)
 .rodata.g_pulXtals
                0x0000000000012410       0x5c ../../Common/drivers/LuminaryMicro/arm-none-eabi-gcc/libdriver.a(sysctl.o)
 .rodata.g_pulDCGCRegs
                0x000000000001246c        0xc ../../Common/drivers/LuminaryMicro/arm-none-eabi-gcc/libdriver.a(sysctl.o)
 .rodata.g_pulRCGCRegs
                0x0000000000012478        0xc ../../Common/drivers/LuminaryMicro/arm-none-eabi-gcc/libdriver.a(sysctl.o)
 .rodata.g_pulSCGCRegs
                0x0000000000012484        0xc ../../Common/drivers/LuminaryMicro/arm-none-eabi-gcc/libdriver.a(sysctl.o)
 .rodata.g_pulSRCRRegs
                0x0000000000012490        0xc ../../Common/drivers/LuminaryMicro/arm-none-eabi-gcc/libdriver.a(sysctl.o)
 .rodata.g_sFontCmss12
                0x000000000001249c       0xc8 ../../Common/drivers/LuminaryMicro/arm-none-eabi-gcc/libgr.a(fontcmss12.o)
                0x000000000001249c                g_sFontCmss12
 .rodata.g_pucCmss12Data
                0x0000000000012564      0x514 ../../Common/drivers/LuminaryMicro/arm-none-eabi-gcc/libgr.a(fontcmss12.o)
                0x0000000000012a78                _etext = .

.glue_7         0x0000000000012a78        0x0
 .glue_7        0x0000000000012a78        0x0 main.o
 .glue_7        0x0000000000012a78        0x0 timertest.o
 .glue_7        0x0000000000012a78        0x0 rit128x96x4.o
 .glue_7        0x0000000000012a78        0x0 osram128x64x4.o
 .glue_7        0x0000000000012a78        0x0 formike128x128x16.o
 .glue_7        0x0000000000012a78        0x0 ./ParTest/ParTest.o
 .glue_7        0x0000000000012a78        0x0 ../../Common/drivers/LuminaryMicro/ustdlib.o
 .glue_7        0x0000000000012a78        0x0 ../../Common/Minimal/BlockQ.o
 .glue_7        0x0000000000012a78        0x0 ../../Common/Minimal/blocktim.o
 .glue_7        0x0000000000012a78        0x0 ../../Common/Minimal/death.o
 .glue_7        0x0000000000012a78        0x0 ../../Common/Minimal/integer.o
 .glue_7        0x0000000000012a78        0x0 ../../Common/Minimal/PollQ.o
 .glue_7        0x0000000000012a78        0x0 ../../Common/Minimal/semtest.o
 .glue_7        0x0000000000012a78        0x0 ../../Common/Minimal/GenQTest.o
 .glue_7        0x0000000000012a78        0x0 ../../Common/Minimal/QPeek.o
 .glue_7        0x0000000000012a78        0x0 ../../Common/Minimal/recmutex.o
 .glue_7        0x0000000000012a78        0x0 ../../Common/Minimal/IntQueue.o
 .glue_7        0x0000000000012a78        0x0 ./IntQueueTimer.o
 .glue_7        0x0000000000012a78        0x0 ./webserver/uIP_Task.o
 .glue_7        0x0000000000012a78        0x0 ./webserver/emac.o
 .glue_7        0x0000000000012a78        0x0 ./webserver/httpd.o
 .glue_7        0x0000000000012a78        0x0 ./webserver/httpd-cgi.o
 .glue_7        0x0000000000012a78        0x0 ./webserver/httpd-fs.o
 .glue_7        0x0000000000012a78        0x0 ./webserver/http-strings.o
 .glue_7        0x0000000000012a78        0x0 ../../Common/ethernet/uIP/uip-1.0/uip/uip_arp.o
 .glue_7        0x0000000000012a78        0x0 ../../Common/ethernet/uIP/uip-1.0/uip/psock.o
 .glue_7        0x0000000000012a78        0x0 ../../Common/ethernet/uIP/uip-1.0/uip/timer.o
 .glue_7        0x0000000000012a78        0x0 ../../Common/ethernet/uIP/uip-1.0/uip/uip.o
 .glue_7        0x0000000000012a78        0x0 ../../Source/list.o
 .glue_7        0x0000000000012a78        0x0 ../../Source/queue.o
 .glue_7        0x0000000000012a78        0x0 ../../Source/tasks.o
 .glue_7        0x0000000000012a78        0x0 ../../Source/portable/GCC/ARM_CM3/port.o
 .glue_7        0x0000000000012a78        0x0 ../../Source/portable/MemMang/heap_2.o
 .glue_7        0x0000000000012a78        0x0 startup.o
 .glue_7        0x0000000000012a78        0x0 ../../Common/drivers/LuminaryMicro/arm-none-eabi-gcc/libdriver.a(ethernet.o)
 .glue_7        0x0000000000012a78        0x0 ../../Common/drivers/LuminaryMicro/arm-none-eabi-gcc/libdriver.a(flash.o)
 .glue_7        0x0000000000012a78        0x0 ../../Common/drivers/LuminaryMicro/arm-none-eabi-gcc/libdriver.a(gpio.o)
 .glue_7        0x0000000000012a78        0x0 ../../Common/drivers/LuminaryMicro/arm-none-eabi-gcc/libdriver.a(interrupt.o)
 .glue_7        0x0000000000012a78        0x0 ../../Common/drivers/LuminaryMicro/arm-none-eabi-gcc/libdriver.a(ssi.o)
 .glue_7        0x0000000000012a78        0x0 ../../Common/drivers/LuminaryMicro/arm-none-eabi-gcc/libdriver.a(sysctl.o)
 .glue_7        0x0000000000012a78        0x0 ../../Common/drivers/LuminaryMicro/arm-none-eabi-gcc/libdriver.a(timer.o)
 .glue_7        0x0000000000012a78        0x0 ../../Common/drivers/LuminaryMicro/arm-none-eabi-gcc/libdriver.a(cpu.o)
 .glue_7        0x0000000000012a78        0x0 ../../Common/drivers/LuminaryMicro/arm-none-eabi-gcc/libgr.a(context.o)
 .glue_7        0x0000000000012a78        0x0 ../../Common/drivers/LuminaryMicro/arm-none-eabi-gcc/libgr.a(fontcmss12.o)
 .glue_7        0x0000000000012a78        0x0 ../../Common/drivers/LuminaryMicro/arm-none-eabi-gcc/libgr.a(image.o)
 .glue_7        0x0000000000012a78        0x0 ../../Common/drivers/LuminaryMicro/arm-none-eabi-gcc/libgr.a(rectangle.o)
 .glue_7        0x0000000000012a78        0x0 ../../Common/drivers/LuminaryMicro/arm-none-eabi-gcc/libgr.a(string.o)
 .glue_7        0x0000000000012a78        0x0 ../../Common/drivers/LuminaryMicro/arm-none-eabi-gcc/libgr.a(line.o)
 .glue_7        0x0000000000012a78        0x0 /opt/arm-cortex-toolchain/lib/gcc/arm-none-eabi/4.3.3/../../../../arm-none-eabi/lib/thumb/libg.a(lib_a-memcmp.o)
 .glue_7        0x0000000000012a78        0x0 /opt/arm-cortex-toolchain/lib/gcc/arm-none-eabi/4.3.3/../../../../arm-none-eabi/lib/thumb/libg.a(lib_a-memcpy.o)
 .glue_7        0x0000000000012a78        0x0 /opt/arm-cortex-toolchain/lib/gcc/arm-none-eabi/4.3.3/../../../../arm-none-eabi/lib/thumb/libg.a(lib_a-memset.o)
 .glue_7        0x0000000000012a78        0x0 /opt/arm-cortex-toolchain/lib/gcc/arm-none-eabi/4.3.3/../../../../arm-none-eabi/lib/thumb/libg.a(lib_a-strcat.o)
 .glue_7        0x0000000000012a78        0x0 /opt/arm-cortex-toolchain/lib/gcc/arm-none-eabi/4.3.3/../../../../arm-none-eabi/lib/thumb/libg.a(lib_a-strchr.o)
 .glue_7        0x0000000000012a78        0x0 /opt/arm-cortex-toolchain/lib/gcc/arm-none-eabi/4.3.3/../../../../arm-none-eabi/lib/thumb/libg.a(lib_a-strcpy.o)
 .glue_7        0x0000000000012a78        0x0 /opt/arm-cortex-toolchain/lib/gcc/arm-none-eabi/4.3.3/../../../../arm-none-eabi/lib/thumb/libg.a(lib_a-strlen.o)
 .glue_7        0x0000000000012a78        0x0 /opt/arm-cortex-toolchain/lib/gcc/arm-none-eabi/4.3.3/../../../../arm-none-eabi/lib/thumb/libg.a(lib_a-strncmp.o)
 .glue_7        0x0000000000012a78        0x0 /opt/arm-cortex-toolchain/lib/gcc/arm-none-eabi/4.3.3/../../../../arm-none-eabi/lib/thumb/libg.a(lib_a-strncpy.o)
 .glue_7        0x0000000000012a78        0x0 /opt/arm-cortex-toolchain/lib/gcc/arm-none-eabi/4.3.3/../../../../arm-none-eabi/lib/thumb/libg.a(lib_a-strrchr.o)
 .glue_7        0x0000000000012a78        0x0 /opt/arm-cortex-toolchain/lib/gcc/arm-none-eabi/4.3.3/../../../../arm-none-eabi/lib/thumb/libg.a(lib_a-strstr.o)
 .glue_7        0x0000000000012a78        0x0 /opt/arm-cortex-toolchain/lib/gcc/arm-none-eabi/4.3.3/../../../../arm-none-eabi/lib/thumb/libg.a(lib_a-memchr.o)

.glue_7t        0x0000000000012a78        0x0
 .glue_7t       0x0000000000012a78        0x0 main.o
 .glue_7t       0x0000000000012a78        0x0 timertest.o
 .glue_7t       0x0000000000012a78        0x0 rit128x96x4.o
 .glue_7t       0x0000000000012a78        0x0 osram128x64x4.o
 .glue_7t       0x0000000000012a78        0x0 formike128x128x16.o
 .glue_7t       0x0000000000012a78        0x0 ./ParTest/ParTest.o
 .glue_7t       0x0000000000012a78        0x0 ../../Common/drivers/LuminaryMicro/ustdlib.o
 .glue_7t       0x0000000000012a78        0x0 ../../Common/Minimal/BlockQ.o
 .glue_7t       0x0000000000012a78        0x0 ../../Common/Minimal/blocktim.o
 .glue_7t       0x0000000000012a78        0x0 ../../Common/Minimal/death.o
 .glue_7t       0x0000000000012a78        0x0 ../../Common/Minimal/integer.o
 .glue_7t       0x0000000000012a78        0x0 ../../Common/Minimal/PollQ.o
 .glue_7t       0x0000000000012a78        0x0 ../../Common/Minimal/semtest.o
 .glue_7t       0x0000000000012a78        0x0 ../../Common/Minimal/GenQTest.o
 .glue_7t       0x0000000000012a78        0x0 ../../Common/Minimal/QPeek.o
 .glue_7t       0x0000000000012a78        0x0 ../../Common/Minimal/recmutex.o
 .glue_7t       0x0000000000012a78        0x0 ../../Common/Minimal/IntQueue.o
 .glue_7t       0x0000000000012a78        0x0 ./IntQueueTimer.o
 .glue_7t       0x0000000000012a78        0x0 ./webserver/uIP_Task.o
 .glue_7t       0x0000000000012a78        0x0 ./webserver/emac.o
 .glue_7t       0x0000000000012a78        0x0 ./webserver/httpd.o
 .glue_7t       0x0000000000012a78        0x0 ./webserver/httpd-cgi.o
 .glue_7t       0x0000000000012a78        0x0 ./webserver/httpd-fs.o
 .glue_7t       0x0000000000012a78        0x0 ./webserver/http-strings.o
 .glue_7t       0x0000000000012a78        0x0 ../../Common/ethernet/uIP/uip-1.0/uip/uip_arp.o
 .glue_7t       0x0000000000012a78        0x0 ../../Common/ethernet/uIP/uip-1.0/uip/psock.o
 .glue_7t       0x0000000000012a78        0x0 ../../Common/ethernet/uIP/uip-1.0/uip/timer.o
 .glue_7t       0x0000000000012a78        0x0 ../../Common/ethernet/uIP/uip-1.0/uip/uip.o
 .glue_7t       0x0000000000012a78        0x0 ../../Source/list.o
 .glue_7t       0x0000000000012a78        0x0 ../../Source/queue.o
 .glue_7t       0x0000000000012a78        0x0 ../../Source/tasks.o
 .glue_7t       0x0000000000012a78        0x0 ../../Source/portable/GCC/ARM_CM3/port.o
 .glue_7t       0x0000000000012a78        0x0 ../../Source/portable/MemMang/heap_2.o
 .glue_7t       0x0000000000012a78        0x0 startup.o
 .glue_7t       0x0000000000012a78        0x0 ../../Common/drivers/LuminaryMicro/arm-none-eabi-gcc/libdriver.a(ethernet.o)
 .glue_7t       0x0000000000012a78        0x0 ../../Common/drivers/LuminaryMicro/arm-none-eabi-gcc/libdriver.a(flash.o)
 .glue_7t       0x0000000000012a78        0x0 ../../Common/drivers/LuminaryMicro/arm-none-eabi-gcc/libdriver.a(gpio.o)
 .glue_7t       0x0000000000012a78        0x0 ../../Common/drivers/LuminaryMicro/arm-none-eabi-gcc/libdriver.a(interrupt.o)
 .glue_7t       0x0000000000012a78        0x0 ../../Common/drivers/LuminaryMicro/arm-none-eabi-gcc/libdriver.a(ssi.o)
 .glue_7t       0x0000000000012a78        0x0 ../../Common/drivers/LuminaryMicro/arm-none-eabi-gcc/libdriver.a(sysctl.o)
 .glue_7t       0x0000000000012a78        0x0 ../../Common/drivers/LuminaryMicro/arm-none-eabi-gcc/libdriver.a(timer.o)
 .glue_7t       0x0000000000012a78        0x0 ../../Common/drivers/LuminaryMicro/arm-none-eabi-gcc/libdriver.a(cpu.o)
 .glue_7t       0x0000000000012a78        0x0 ../../Common/drivers/LuminaryMicro/arm-none-eabi-gcc/libgr.a(context.o)
 .glue_7t       0x0000000000012a78        0x0 ../../Common/drivers/LuminaryMicro/arm-none-eabi-gcc/libgr.a(fontcmss12.o)
 .glue_7t       0x0000000000012a78        0x0 ../../Common/drivers/LuminaryMicro/arm-none-eabi-gcc/libgr.a(image.o)
 .glue_7t       0x0000000000012a78        0x0 ../../Common/drivers/LuminaryMicro/arm-none-eabi-gcc/libgr.a(rectangle.o)
 .glue_7t       0x0000000000012a78        0x0 ../../Common/drivers/LuminaryMicro/arm-none-eabi-gcc/libgr.a(string.o)
 .glue_7t       0x0000000000012a78        0x0 ../../Common/drivers/LuminaryMicro/arm-none-eabi-gcc/libgr.a(line.o)
 .glue_7t       0x0000000000012a78        0x0 /opt/arm-cortex-toolchain/lib/gcc/arm-none-eabi/4.3.3/../../../../arm-none-eabi/lib/thumb/libg.a(lib_a-memcmp.o)
 .glue_7t       0x0000000000012a78        0x0 /opt/arm-cortex-toolchain/lib/gcc/arm-none-eabi/4.3.3/../../../../arm-none-eabi/lib/thumb/libg.a(lib_a-memcpy.o)
 .glue_7t       0x0000000000012a78        0x0 /opt/arm-cortex-toolchain/lib/gcc/arm-none-eabi/4.3.3/../../../../arm-none-eabi/lib/thumb/libg.a(lib_a-memset.o)
 .glue_7t       0x0000000000012a78        0x0 /opt/arm-cortex-toolchain/lib/gcc/arm-none-eabi/4.3.3/../../../../arm-none-eabi/lib/thumb/libg.a(lib_a-strcat.o)
 .glue_7t       0x0000000000012a78        0x0 /opt/arm-cortex-toolchain/lib/gcc/arm-none-eabi/4.3.3/../../../../arm-none-eabi/lib/thumb/libg.a(lib_a-strchr.o)
 .glue_7t       0x0000000000012a78        0x0 /opt/arm-cortex-toolchain/lib/gcc/arm-none-eabi/4.3.3/../../../../arm-none-eabi/lib/thumb/libg.a(lib_a-strcpy.o)
 .glue_7t       0x0000000000012a78        0x0 /opt/arm-cortex-toolchain/lib/gcc/arm-none-eabi/4.3.3/../../../../arm-none-eabi/lib/thumb/libg.a(lib_a-strlen.o)
 .glue_7t       0x0000000000012a78        0x0 /opt/arm-cortex-toolchain/lib/gcc/arm-none-eabi/4.3.3/../../../../arm-none-eabi/lib/thumb/libg.a(lib_a-strncmp.o)
 .glue_7t       0x0000000000012a78        0x0 /opt/arm-cortex-toolchain/lib/gcc/arm-none-eabi/4.3.3/../../../../arm-none-eabi/lib/thumb/libg.a(lib_a-strncpy.o)
 .glue_7t       0x0000000000012a78        0x0 /opt/arm-cortex-toolchain/lib/gcc/arm-none-eabi/4.3.3/../../../../arm-none-eabi/lib/thumb/libg.a(lib_a-strrchr.o)
 .glue_7t       0x0000000000012a78        0x0 /opt/arm-cortex-toolchain/lib/gcc/arm-none-eabi/4.3.3/../../../../arm-none-eabi/lib/thumb/libg.a(lib_a-strstr.o)
 .glue_7t       0x0000000000012a78        0x0 /opt/arm-cortex-toolchain/lib/gcc/arm-none-eabi/4.3.3/../../../../arm-none-eabi/lib/thumb/libg.a(lib_a-memchr.o)

.vfp11_veneer   0x0000000000012a78        0x0
 .vfp11_veneer  0x0000000000012a78        0x0 main.o
 .vfp11_veneer  0x0000000000012a78        0x0 timertest.o
 .vfp11_veneer  0x0000000000012a78        0x0 rit128x96x4.o
 .vfp11_veneer  0x0000000000012a78        0x0 osram128x64x4.o
 .vfp11_veneer  0x0000000000012a78        0x0 formike128x128x16.o
 .vfp11_veneer  0x0000000000012a78        0x0 ./ParTest/ParTest.o
 .vfp11_veneer  0x0000000000012a78        0x0 ../../Common/drivers/LuminaryMicro/ustdlib.o
 .vfp11_veneer  0x0000000000012a78        0x0 ../../Common/Minimal/BlockQ.o
 .vfp11_veneer  0x0000000000012a78        0x0 ../../Common/Minimal/blocktim.o
 .vfp11_veneer  0x0000000000012a78        0x0 ../../Common/Minimal/death.o
 .vfp11_veneer  0x0000000000012a78        0x0 ../../Common/Minimal/integer.o
 .vfp11_veneer  0x0000000000012a78        0x0 ../../Common/Minimal/PollQ.o
 .vfp11_veneer  0x0000000000012a78        0x0 ../../Common/Minimal/semtest.o
 .vfp11_veneer  0x0000000000012a78        0x0 ../../Common/Minimal/GenQTest.o
 .vfp11_veneer  0x0000000000012a78        0x0 ../../Common/Minimal/QPeek.o
 .vfp11_veneer  0x0000000000012a78        0x0 ../../Common/Minimal/recmutex.o
 .vfp11_veneer  0x0000000000012a78        0x0 ../../Common/Minimal/IntQueue.o
 .vfp11_veneer  0x0000000000012a78        0x0 ./IntQueueTimer.o
 .vfp11_veneer  0x0000000000012a78        0x0 ./webserver/uIP_Task.o
 .vfp11_veneer  0x0000000000012a78        0x0 ./webserver/emac.o
 .vfp11_veneer  0x0000000000012a78        0x0 ./webserver/httpd.o
 .vfp11_veneer  0x0000000000012a78        0x0 ./webserver/httpd-cgi.o
 .vfp11_veneer  0x0000000000012a78        0x0 ./webserver/httpd-fs.o
 .vfp11_veneer  0x0000000000012a78        0x0 ./webserver/http-strings.o
 .vfp11_veneer  0x0000000000012a78        0x0 ../../Common/ethernet/uIP/uip-1.0/uip/uip_arp.o
 .vfp11_veneer  0x0000000000012a78        0x0 ../../Common/ethernet/uIP/uip-1.0/uip/psock.o
 .vfp11_veneer  0x0000000000012a78        0x0 ../../Common/ethernet/uIP/uip-1.0/uip/timer.o
 .vfp11_veneer  0x0000000000012a78        0x0 ../../Common/ethernet/uIP/uip-1.0/uip/uip.o
 .vfp11_veneer  0x0000000000012a78        0x0 ../../Source/list.o
 .vfp11_veneer  0x0000000000012a78        0x0 ../../Source/queue.o
 .vfp11_veneer  0x0000000000012a78        0x0 ../../Source/tasks.o
 .vfp11_veneer  0x0000000000012a78        0x0 ../../Source/portable/GCC/ARM_CM3/port.o
 .vfp11_veneer  0x0000000000012a78        0x0 ../../Source/portable/MemMang/heap_2.o
 .vfp11_veneer  0x0000000000012a78        0x0 startup.o
 .vfp11_veneer  0x0000000000012a78        0x0 ../../Common/drivers/LuminaryMicro/arm-none-eabi-gcc/libdriver.a(ethernet.o)
 .vfp11_veneer  0x0000000000012a78        0x0 ../../Common/drivers/LuminaryMicro/arm-none-eabi-gcc/libdriver.a(flash.o)
 .vfp11_veneer  0x0000000000012a78        0x0 ../../Common/drivers/LuminaryMicro/arm-none-eabi-gcc/libdriver.a(gpio.o)
 .vfp11_veneer  0x0000000000012a78        0x0 ../../Common/drivers/LuminaryMicro/arm-none-eabi-gcc/libdriver.a(interrupt.o)
 .vfp11_veneer  0x0000000000012a78        0x0 ../../Common/drivers/LuminaryMicro/arm-none-eabi-gcc/libdriver.a(ssi.o)
 .vfp11_veneer  0x0000000000012a78        0x0 ../../Common/drivers/LuminaryMicro/arm-none-eabi-gcc/libdriver.a(sysctl.o)
 .vfp11_veneer  0x0000000000012a78        0x0 ../../Common/drivers/LuminaryMicro/arm-none-eabi-gcc/libdriver.a(timer.o)
 .vfp11_veneer  0x0000000000012a78        0x0 ../../Common/drivers/LuminaryMicro/arm-none-eabi-gcc/libdriver.a(cpu.o)
 .vfp11_veneer  0x0000000000012a78        0x0 ../../Common/drivers/LuminaryMicro/arm-none-eabi-gcc/libgr.a(context.o)
 .vfp11_veneer  0x0000000000012a78        0x0 ../../Common/drivers/LuminaryMicro/arm-none-eabi-gcc/libgr.a(fontcmss12.o)
 .vfp11_veneer  0x0000000000012a78        0x0 ../../Common/drivers/LuminaryMicro/arm-none-eabi-gcc/libgr.a(image.o)
 .vfp11_veneer  0x0000000000012a78        0x0 ../../Common/drivers/LuminaryMicro/arm-none-eabi-gcc/libgr.a(rectangle.o)
 .vfp11_veneer  0x0000000000012a78        0x0 ../../Common/drivers/LuminaryMicro/arm-none-eabi-gcc/libgr.a(string.o)
 .vfp11_veneer  0x0000000000012a78        0x0 ../../Common/drivers/LuminaryMicro/arm-none-eabi-gcc/libgr.a(line.o)
 .vfp11_veneer  0x0000000000012a78        0x0 /opt/arm-cortex-toolchain/lib/gcc/arm-none-eabi/4.3.3/../../../../arm-none-eabi/lib/thumb/libg.a(lib_a-memcmp.o)
 .vfp11_veneer  0x0000000000012a78        0x0 /opt/arm-cortex-toolchain/lib/gcc/arm-none-eabi/4.3.3/../../../../arm-none-eabi/lib/thumb/libg.a(lib_a-memcpy.o)
 .vfp11_veneer  0x0000000000012a78        0x0 /opt/arm-cortex-toolchain/lib/gcc/arm-none-eabi/4.3.3/../../../../arm-none-eabi/lib/thumb/libg.a(lib_a-memset.o)
 .vfp11_veneer  0x0000000000012a78        0x0 /opt/arm-cortex-toolchain/lib/gcc/arm-none-eabi/4.3.3/../../../../arm-none-eabi/lib/thumb/libg.a(lib_a-strcat.o)
 .vfp11_veneer  0x0000000000012a78        0x0 /opt/arm-cortex-toolchain/lib/gcc/arm-none-eabi/4.3.3/../../../../arm-none-eabi/lib/thumb/libg.a(lib_a-strchr.o)
 .vfp11_veneer  0x0000000000012a78        0x0 /opt/arm-cortex-toolchain/lib/gcc/arm-none-eabi/4.3.3/../../../../arm-none-eabi/lib/thumb/libg.a(lib_a-strcpy.o)
 .vfp11_veneer  0x0000000000012a78        0x0 /opt/arm-cortex-toolchain/lib/gcc/arm-none-eabi/4.3.3/../../../../arm-none-eabi/lib/thumb/libg.a(lib_a-strlen.o)
 .vfp11_veneer  0x0000000000012a78        0x0 /opt/arm-cortex-toolchain/lib/gcc/arm-none-eabi/4.3.3/../../../../arm-none-eabi/lib/thumb/libg.a(lib_a-strncmp.o)
 .vfp11_veneer  0x0000000000012a78        0x0 /opt/arm-cortex-toolchain/lib/gcc/arm-none-eabi/4.3.3/../../../../arm-none-eabi/lib/thumb/libg.a(lib_a-strncpy.o)
 .vfp11_veneer  0x0000000000012a78        0x0 /opt/arm-cortex-toolchain/lib/gcc/arm-none-eabi/4.3.3/../../../../arm-none-eabi/lib/thumb/libg.a(lib_a-strrchr.o)
 .vfp11_veneer  0x0000000000012a78        0x0 /opt/arm-cortex-toolchain/lib/gcc/arm-none-eabi/4.3.3/../../../../arm-none-eabi/lib/thumb/libg.a(lib_a-strstr.o)
 .vfp11_veneer  0x0000000000012a78        0x0 /opt/arm-cortex-toolchain/lib/gcc/arm-none-eabi/4.3.3/../../../../arm-none-eabi/lib/thumb/libg.a(lib_a-memchr.o)

.v4_bx          0x0000000000012a78        0x0
 .v4_bx         0x0000000000012a78        0x0 main.o
 .v4_bx         0x0000000000012a78        0x0 timertest.o
 .v4_bx         0x0000000000012a78        0x0 rit128x96x4.o
 .v4_bx         0x0000000000012a78        0x0 osram128x64x4.o
 .v4_bx         0x0000000000012a78        0x0 formike128x128x16.o
 .v4_bx         0x0000000000012a78        0x0 ./ParTest/ParTest.o
 .v4_bx         0x0000000000012a78        0x0 ../../Common/drivers/LuminaryMicro/ustdlib.o
 .v4_bx         0x0000000000012a78        0x0 ../../Common/Minimal/BlockQ.o
 .v4_bx         0x0000000000012a78        0x0 ../../Common/Minimal/blocktim.o
 .v4_bx         0x0000000000012a78        0x0 ../../Common/Minimal/death.o
 .v4_bx         0x0000000000012a78        0x0 ../../Common/Minimal/integer.o
 .v4_bx         0x0000000000012a78        0x0 ../../Common/Minimal/PollQ.o
 .v4_bx         0x0000000000012a78        0x0 ../../Common/Minimal/semtest.o
 .v4_bx         0x0000000000012a78        0x0 ../../Common/Minimal/GenQTest.o
 .v4_bx         0x0000000000012a78        0x0 ../../Common/Minimal/QPeek.o
 .v4_bx         0x0000000000012a78        0x0 ../../Common/Minimal/recmutex.o
 .v4_bx         0x0000000000012a78        0x0 ../../Common/Minimal/IntQueue.o
 .v4_bx         0x0000000000012a78        0x0 ./IntQueueTimer.o
 .v4_bx         0x0000000000012a78        0x0 ./webserver/uIP_Task.o
 .v4_bx         0x0000000000012a78        0x0 ./webserver/emac.o
 .v4_bx         0x0000000000012a78        0x0 ./webserver/httpd.o
 .v4_bx         0x0000000000012a78        0x0 ./webserver/httpd-cgi.o
 .v4_bx         0x0000000000012a78        0x0 ./webserver/httpd-fs.o
 .v4_bx         0x0000000000012a78        0x0 ./webserver/http-strings.o
 .v4_bx         0x0000000000012a78        0x0 ../../Common/ethernet/uIP/uip-1.0/uip/uip_arp.o
 .v4_bx         0x0000000000012a78        0x0 ../../Common/ethernet/uIP/uip-1.0/uip/psock.o
 .v4_bx         0x0000000000012a78        0x0 ../../Common/ethernet/uIP/uip-1.0/uip/timer.o
 .v4_bx         0x0000000000012a78        0x0 ../../Common/ethernet/uIP/uip-1.0/uip/uip.o
 .v4_bx         0x0000000000012a78        0x0 ../../Source/list.o
 .v4_bx         0x0000000000012a78        0x0 ../../Source/queue.o
 .v4_bx         0x0000000000012a78        0x0 ../../Source/tasks.o
 .v4_bx         0x0000000000012a78        0x0 ../../Source/portable/GCC/ARM_CM3/port.o
 .v4_bx         0x0000000000012a78        0x0 ../../Source/portable/MemMang/heap_2.o
 .v4_bx         0x0000000000012a78        0x0 startup.o
 .v4_bx         0x0000000000012a78        0x0 ../../Common/drivers/LuminaryMicro/arm-none-eabi-gcc/libdriver.a(ethernet.o)
 .v4_bx         0x0000000000012a78        0x0 ../../Common/drivers/LuminaryMicro/arm-none-eabi-gcc/libdriver.a(flash.o)
 .v4_bx         0x0000000000012a78        0x0 ../../Common/drivers/LuminaryMicro/arm-none-eabi-gcc/libdriver.a(gpio.o)
 .v4_bx         0x0000000000012a78        0x0 ../../Common/drivers/LuminaryMicro/arm-none-eabi-gcc/libdriver.a(interrupt.o)
 .v4_bx         0x0000000000012a78        0x0 ../../Common/drivers/LuminaryMicro/arm-none-eabi-gcc/libdriver.a(ssi.o)
 .v4_bx         0x0000000000012a78        0x0 ../../Common/drivers/LuminaryMicro/arm-none-eabi-gcc/libdriver.a(sysctl.o)
 .v4_bx         0x0000000000012a78        0x0 ../../Common/drivers/LuminaryMicro/arm-none-eabi-gcc/libdriver.a(timer.o)
 .v4_bx         0x0000000000012a78        0x0 ../../Common/drivers/LuminaryMicro/arm-none-eabi-gcc/libdriver.a(cpu.o)
 .v4_bx         0x0000000000012a78        0x0 ../../Common/drivers/LuminaryMicro/arm-none-eabi-gcc/libgr.a(context.o)
 .v4_bx         0x0000000000012a78        0x0 ../../Common/drivers/LuminaryMicro/arm-none-eabi-gcc/libgr.a(fontcmss12.o)
 .v4_bx         0x0000000000012a78        0x0 ../../Common/drivers/LuminaryMicro/arm-none-eabi-gcc/libgr.a(image.o)
 .v4_bx         0x0000000000012a78        0x0 ../../Common/drivers/LuminaryMicro/arm-none-eabi-gcc/libgr.a(rectangle.o)
 .v4_bx         0x0000000000012a78        0x0 ../../Common/drivers/LuminaryMicro/arm-none-eabi-gcc/libgr.a(string.o)
 .v4_bx         0x0000000000012a78        0x0 ../../Common/drivers/LuminaryMicro/arm-none-eabi-gcc/libgr.a(line.o)
 .v4_bx         0x0000000000012a78        0x0 /opt/arm-cortex-toolchain/lib/gcc/arm-none-eabi/4.3.3/../../../../arm-none-eabi/lib/thumb/libg.a(lib_a-memcmp.o)
 .v4_bx         0x0000000000012a78        0x0 /opt/arm-cortex-toolchain/lib/gcc/arm-none-eabi/4.3.3/../../../../arm-none-eabi/lib/thumb/libg.a(lib_a-memcpy.o)
 .v4_bx         0x0000000000012a78        0x0 /opt/arm-cortex-toolchain/lib/gcc/arm-none-eabi/4.3.3/../../../../arm-none-eabi/lib/thumb/libg.a(lib_a-memset.o)
 .v4_bx         0x0000000000012a78        0x0 /opt/arm-cortex-toolchain/lib/gcc/arm-none-eabi/4.3.3/../../../../arm-none-eabi/lib/thumb/libg.a(lib_a-strcat.o)
 .v4_bx         0x0000000000012a78        0x0 /opt/arm-cortex-toolchain/lib/gcc/arm-none-eabi/4.3.3/../../../../arm-none-eabi/lib/thumb/libg.a(lib_a-strchr.o)
 .v4_bx         0x0000000000012a78        0x0 /opt/arm-cortex-toolchain/lib/gcc/arm-none-eabi/4.3.3/../../../../arm-none-eabi/lib/thumb/libg.a(lib_a-strcpy.o)
 .v4_bx         0x0000000000012a78        0x0 /opt/arm-cortex-toolchain/lib/gcc/arm-none-eabi/4.3.3/../../../../arm-none-eabi/lib/thumb/libg.a(lib_a-strlen.o)
 .v4_bx         0x0000000000012a78        0x0 /opt/arm-cortex-toolchain/lib/gcc/arm-none-eabi/4.3.3/../../../../arm-none-eabi/lib/thumb/libg.a(lib_a-strncmp.o)
 .v4_bx         0x0000000000012a78        0x0 /opt/arm-cortex-toolchain/lib/gcc/arm-none-eabi/4.3.3/../../../../arm-none-eabi/lib/thumb/libg.a(lib_a-strncpy.o)
 .v4_bx         0x0000000000012a78        0x0 /opt/arm-cortex-toolchain/lib/gcc/arm-none-eabi/4.3.3/../../../../arm-none-eabi/lib/thumb/libg.a(lib_a-strrchr.o)
 .v4_bx         0x0000000000012a78        0x0 /opt/arm-cortex-toolchain/lib/gcc/arm-none-eabi/4.3.3/../../../../arm-none-eabi/lib/thumb/libg.a(lib_a-strstr.o)
 .v4_bx         0x0000000000012a78        0x0 /opt/arm-cortex-toolchain/lib/gcc/arm-none-eabi/4.3.3/../../../../arm-none-eabi/lib/thumb/libg.a(lib_a-memchr.o)

.data           0x0000000020000000      0x154 load address 0x0000000000012a78
                0x0000000020000000                _data = .
 *(vtable)
 vtable         0x0000000020000000      0x100 ../../Common/drivers/LuminaryMicro/arm-none-eabi-gcc/libdriver.a(interrupt.o)
 *(.data*)
 .data          0x0000000020000100        0x0 main.o
 .data.xMessage.2972
                0x0000000020000100        0x4 main.o
 .data          0x0000000020000104        0x0 timertest.o
 .data          0x0000000020000104        0x0 rit128x96x4.o
 .data          0x0000000020000104        0x0 osram128x64x4.o
 .data          0x0000000020000104        0x0 formike128x128x16.o
 .data          0x0000000020000104        0x0 ./ParTest/ParTest.o
 .data          0x0000000020000104        0x0 ../../Common/drivers/LuminaryMicro/ustdlib.o
 .data          0x0000000020000104        0x0 ../../Common/Minimal/BlockQ.o
 .data          0x0000000020000104        0x0 ../../Common/Minimal/blocktim.o
 .data          0x0000000020000104        0x0 ../../Common/Minimal/death.o
 .data.usLastCreationCount.1973
                0x0000000020000104        0x2 ../../Common/Minimal/death.o
 .data          0x0000000020000106        0x0 ../../Common/Minimal/integer.o
 .data          0x0000000020000106        0x0 ../../Common/Minimal/PollQ.o
 .data          0x0000000020000106        0x0 ../../Common/Minimal/semtest.o
 .data          0x0000000020000106        0x0 ../../Common/Minimal/GenQTest.o
 .data          0x0000000020000106        0x0 ../../Common/Minimal/QPeek.o
 .data          0x0000000020000106        0x0 ../../Common/Minimal/recmutex.o
 .data          0x0000000020000106        0x0 ../../Common/Minimal/IntQueue.o
 *fill*         0x0000000020000106        0x2 00
 .data.xErrorStatus
                0x0000000020000108        0x4 ../../Common/Minimal/IntQueue.o
 .data          0x000000002000010c        0x0 ./IntQueueTimer.o
 .data          0x000000002000010c        0x0 ./webserver/uIP_Task.o
 .data          0x000000002000010c        0x0 ./webserver/emac.o
 .data          0x000000002000010c        0x0 ./webserver/httpd.o
 .data          0x000000002000010c        0x0 ./webserver/httpd-cgi.o
 .data.calls    0x000000002000010c       0x1c ./webserver/httpd-cgi.o
 .data.states   0x0000000020000128       0x24 ./webserver/httpd-cgi.o
 .data          0x000000002000014c        0x0 ./webserver/httpd-fs.o
 .data          0x000000002000014c        0x0 ./webserver/http-strings.o
 .data          0x000000002000014c        0x0 ../../Common/ethernet/uIP/uip-1.0/uip/uip_arp.o
 .data          0x000000002000014c        0x0 ../../Common/ethernet/uIP/uip-1.0/uip/psock.o
 .data          0x000000002000014c        0x0 ../../Common/ethernet/uIP/uip-1.0/uip/timer.o
 .data          0x000000002000014c        0x0 ../../Common/ethernet/uIP/uip-1.0/uip/uip.o
 .data          0x000000002000014c        0x0 ../../Source/list.o
 .data          0x000000002000014c        0x0 ../../Source/queue.o
 .data          0x000000002000014c        0x0 ../../Source/tasks.o
 .data.uxPreviousTask
                0x000000002000014c        0x4 ../../Source/tasks.o
 .data          0x0000000020000150        0x0 ../../Source/portable/GCC/ARM_CM3/port.o
 .data.uxCriticalNesting
                0x0000000020000150        0x4 ../../Source/portable/GCC/ARM_CM3/port.o
 .data          0x0000000020000154        0x0 ../../Source/portable/MemMang/heap_2.o
 .data          0x0000000020000154        0x0 startup.o
 .data          0x0000000020000154        0x0 ../../Common/drivers/LuminaryMicro/arm-none-eabi-gcc/libdriver.a(ethernet.o)
 .data          0x0000000020000154        0x0 ../../Common/drivers/LuminaryMicro/arm-none-eabi-gcc/libdriver.a(flash.o)
 .data          0x0000000020000154        0x0 ../../Common/drivers/LuminaryMicro/arm-none-eabi-gcc/libdriver.a(gpio.o)
 .data          0x0000000020000154        0x0 ../../Common/drivers/LuminaryMicro/arm-none-eabi-gcc/libdriver.a(interrupt.o)
 .data          0x0000000020000154        0x0 ../../Common/drivers/LuminaryMicro/arm-none-eabi-gcc/libdriver.a(ssi.o)
 .data          0x0000000020000154        0x0 ../../Common/drivers/LuminaryMicro/arm-none-eabi-gcc/libdriver.a(sysctl.o)
 .data          0x0000000020000154        0x0 ../../Common/drivers/LuminaryMicro/arm-none-eabi-gcc/libdriver.a(timer.o)
 .data          0x0000000020000154        0x0 ../../Common/drivers/LuminaryMicro/arm-none-eabi-gcc/libdriver.a(cpu.o)
 .data          0x0000000020000154        0x0 ../../Common/drivers/LuminaryMicro/arm-none-eabi-gcc/libgr.a(context.o)
 .data          0x0000000020000154        0x0 ../../Common/drivers/LuminaryMicro/arm-none-eabi-gcc/libgr.a(fontcmss12.o)
 .data          0x0000000020000154        0x0 ../../Common/drivers/LuminaryMicro/arm-none-eabi-gcc/libgr.a(image.o)
 .data          0x0000000020000154        0x0 ../../Common/drivers/LuminaryMicro/arm-none-eabi-gcc/libgr.a(rectangle.o)
 .data          0x0000000020000154        0x0 ../../Common/drivers/LuminaryMicro/arm-none-eabi-gcc/libgr.a(string.o)
 .data          0x0000000020000154        0x0 ../../Common/drivers/LuminaryMicro/arm-none-eabi-gcc/libgr.a(line.o)
 .data          0x0000000020000154        0x0 /opt/arm-cortex-toolchain/lib/gcc/arm-none-eabi/4.3.3/../../../../arm-none-eabi/lib/thumb/libg.a(lib_a-memcmp.o)
 .data          0x0000000020000154        0x0 /opt/arm-cortex-toolchain/lib/gcc/arm-none-eabi/4.3.3/../../../../arm-none-eabi/lib/thumb/libg.a(lib_a-memcpy.o)
 .data          0x0000000020000154        0x0 /opt/arm-cortex-toolchain/lib/gcc/arm-none-eabi/4.3.3/../../../../arm-none-eabi/lib/thumb/libg.a(lib_a-memset.o)
 .data          0x0000000020000154        0x0 /opt/arm-cortex-toolchain/lib/gcc/arm-none-eabi/4.3.3/../../../../arm-none-eabi/lib/thumb/libg.a(lib_a-strcat.o)
 .data          0x0000000020000154        0x0 /opt/arm-cortex-toolchain/lib/gcc/arm-none-eabi/4.3.3/../../../../arm-none-eabi/lib/thumb/libg.a(lib_a-strchr.o)
 .data          0x0000000020000154        0x0 /opt/arm-cortex-toolchain/lib/gcc/arm-none-eabi/4.3.3/../../../../arm-none-eabi/lib/thumb/libg.a(lib_a-strcpy.o)
 .data          0x0000000020000154        0x0 /opt/arm-cortex-toolchain/lib/gcc/arm-none-eabi/4.3.3/../../../../arm-none-eabi/lib/thumb/libg.a(lib_a-strlen.o)
 .data          0x0000000020000154        0x0 /opt/arm-cortex-toolchain/lib/gcc/arm-none-eabi/4.3.3/../../../../arm-none-eabi/lib/thumb/libg.a(lib_a-strncmp.o)
 .data          0x0000000020000154        0x0 /opt/arm-cortex-toolchain/lib/gcc/arm-none-eabi/4.3.3/../../../../arm-none-eabi/lib/thumb/libg.a(lib_a-strncpy.o)
 .data          0x0000000020000154        0x0 /opt/arm-cortex-toolchain/lib/gcc/arm-none-eabi/4.3.3/../../../../arm-none-eabi/lib/thumb/libg.a(lib_a-strrchr.o)
 .data          0x0000000020000154        0x0 /opt/arm-cortex-toolchain/lib/gcc/arm-none-eabi/4.3.3/../../../../arm-none-eabi/lib/thumb/libg.a(lib_a-strstr.o)
 .data          0x0000000020000154        0x0 /opt/arm-cortex-toolchain/lib/gcc/arm-none-eabi/4.3.3/../../../../arm-none-eabi/lib/thumb/libg.a(lib_a-memchr.o)
                0x0000000020000154                _edata = .

.bss            0x0000000020000154     0xa3d0 load address 0x0000000000012bcc
                0x0000000020000154                _bss = .
 *(.bss*)
 .bss           0x0000000020000154        0x0 main.o
 .bss.ulIdleError
                0x0000000020000154        0x4 main.o
                0x0000000020000154                ulIdleError
 .bss.ulTicksSinceLastDisplay.2973
                0x0000000020000158        0x4 main.o
 .bss.cMessage.3030
                0x000000002000015c       0x19 main.o
 .bss           0x0000000020000175        0x0 timertest.o
 *fill*         0x0000000020000175        0x3 00
 .bss.ulMaxJitter
                0x0000000020000178        0x4 timertest.o
                0x0000000020000178                ulMaxJitter
 .bss.ulHighFrequencyTimerTicks
                0x000000002000017c        0x4 timertest.o
                0x000000002000017c                ulHighFrequencyTimerTicks
 .bss.ulLastCount.1476
                0x0000000020000180        0x4 timertest.o
 .bss.ulMaxDifference.1475
                0x0000000020000184        0x4 timertest.o
 .bss           0x0000000020000188        0x0 rit128x96x4.o
 .bss.ulGPIOId  0x0000000020000188        0x4 rit128x96x4.o
                0x0000000020000188                ulGPIOId
 .bss.ulGPIOBase
                0x000000002000018c        0x4 rit128x96x4.o
                0x000000002000018c                ulGPIOBase
 .bss.ulOLEDDC_PIN
                0x0000000020000190        0x4 rit128x96x4.o
                0x0000000020000190                ulOLEDDC_PIN
 .bss.ulOLEDEN_PIN
                0x0000000020000194        0x4 rit128x96x4.o
                0x0000000020000194                ulOLEDEN_PIN
 .bss.g_bSSIEnabled
                0x0000000020000198        0x1 rit128x96x4.o
 .bss.g_pucBuffer
                0x0000000020000199        0x8 rit128x96x4.o
 .bss           0x00000000200001a1        0x0 osram128x64x4.o
 .bss.g_bSSIEnabled
                0x00000000200001a1        0x1 osram128x64x4.o
 .bss.pucZeroBuffer.1527
                0x00000000200001a2        0x8 osram128x64x4.o
 .bss.pucBuffer.1540
                0x00000000200001aa        0x8 osram128x64x4.o
 .bss.pucBuffer.1607
                0x00000000200001b2        0x8 osram128x64x4.o
 .bss           0x00000000200001ba        0x0 formike128x128x16.o
 *fill*         0x00000000200001ba        0x2 00
 .bss.sContext  0x00000000200001bc       0x1c formike128x128x16.o
 .bss           0x00000000200001d8        0x0 ./ParTest/ParTest.o
 .bss           0x00000000200001d8        0x0 ../../Common/drivers/LuminaryMicro/ustdlib.o
 .bss           0x00000000200001d8        0x0 ../../Common/Minimal/BlockQ.o
 .bss.sBlockingConsumerCount
                0x00000000200001d8        0x6 ../../Common/Minimal/BlockQ.o
 .bss.sBlockingProducerCount
                0x00000000200001de        0x6 ../../Common/Minimal/BlockQ.o
 .bss.sLastBlockingProducerCount.2085
                0x00000000200001e4        0x6 ../../Common/Minimal/BlockQ.o
 .bss.sLastBlockingConsumerCount.2084
                0x00000000200001ea        0x6 ../../Common/Minimal/BlockQ.o
 .bss           0x00000000200001f0        0x0 ../../Common/Minimal/blocktim.o
 .bss.xPrimaryCycles
                0x00000000200001f0        0x4 ../../Common/Minimal/blocktim.o
 .bss.xSecondaryCycles
                0x00000000200001f4        0x4 ../../Common/Minimal/blocktim.o
 .bss.xErrorOccurred
                0x00000000200001f8        0x4 ../../Common/Minimal/blocktim.o
 .bss.xLastSecondaryCycleCount.1646
                0x00000000200001fc        0x4 ../../Common/Minimal/blocktim.o
 .bss.xLastPrimaryCycleCount.1645
                0x0000000020000200        0x4 ../../Common/Minimal/blocktim.o
 .bss.xTestQueue
                0x0000000020000204        0x4 ../../Common/Minimal/blocktim.o
 .bss.xSecondary
                0x0000000020000208        0x4 ../../Common/Minimal/blocktim.o
 .bss.xRunIndicator
                0x000000002000020c        0x4 ../../Common/Minimal/blocktim.o
 .bss           0x0000000020000210        0x0 ../../Common/Minimal/death.o
 .bss.usCreationCount
                0x0000000020000210        0x2 ../../Common/Minimal/death.o
 *fill*         0x0000000020000212        0x2 00
 .bss.uxTasksRunningAtStart
                0x0000000020000214        0x4 ../../Common/Minimal/death.o
 .bss.uxTasksRunningNow.1975
                0x0000000020000218        0x4 ../../Common/Minimal/death.o
 .bss           0x000000002000021c        0x0 ../../Common/Minimal/integer.o
 .bss.xTaskCheck
                0x000000002000021c        0x4 ../../Common/Minimal/integer.o
 .bss           0x0000000020000220        0x0 ../../Common/Minimal/PollQ.o
 .bss.xPollingConsumerCount
                0x0000000020000220        0x4 ../../Common/Minimal/PollQ.o
 .bss.xPollingProducerCount
                0x0000000020000224        0x4 ../../Common/Minimal/PollQ.o
 .bss.xPolledQueue.2006
                0x0000000020000228        0x4 ../../Common/Minimal/PollQ.o
 .bss           0x000000002000022c        0x0 ../../Common/Minimal/semtest.o
 .bss.sCheckVariables
                0x000000002000022c        0x8 ../../Common/Minimal/semtest.o
 .bss.sNextCheckVariable
                0x0000000020000234        0x2 ../../Common/Minimal/semtest.o
 .bss.sLastCheckVariables.2101
                0x0000000020000236        0x8 ../../Common/Minimal/semtest.o
 .bss           0x000000002000023e        0x0 ../../Common/Minimal/GenQTest.o
 *fill*         0x000000002000023e        0x2 00
 .bss.xErrorDetected
                0x0000000020000240        0x4 ../../Common/Minimal/GenQTest.o
 .bss.ulLoopCounter
                0x0000000020000244        0x4 ../../Common/Minimal/GenQTest.o
 .bss.ulLoopCounter2
                0x0000000020000248        0x4 ../../Common/Minimal/GenQTest.o
 .bss.ulGuardedVariable
                0x000000002000024c        0x4 ../../Common/Minimal/GenQTest.o
 .bss.ulLastLoopCounter2.2200
                0x0000000020000250        0x4 ../../Common/Minimal/GenQTest.o
 .bss.ulLastLoopCounter.2199
                0x0000000020000254        0x4 ../../Common/Minimal/GenQTest.o
 .bss.xHighPriorityMutexTask
                0x0000000020000258        0x4 ../../Common/Minimal/GenQTest.o
 .bss.xMediumPriorityMutexTask
                0x000000002000025c        0x4 ../../Common/Minimal/GenQTest.o
 .bss           0x0000000020000260        0x0 ../../Common/Minimal/QPeek.o
 .bss.xErrorDetected
                0x0000000020000260        0x4 ../../Common/Minimal/QPeek.o
 .bss.ulLoopCounter
                0x0000000020000264        0x4 ../../Common/Minimal/QPeek.o
 .bss.ulLastLoopCounter.2128
                0x0000000020000268        0x4 ../../Common/Minimal/QPeek.o
 .bss           0x000000002000026c        0x0 ../../Common/Minimal/recmutex.o
 .bss.xErrorOccurred
                0x000000002000026c        0x4 ../../Common/Minimal/recmutex.o
 .bss.xControllingIsSuspended
                0x0000000020000270        0x4 ../../Common/Minimal/recmutex.o
 .bss.xBlockingIsSuspended
                0x0000000020000274        0x4 ../../Common/Minimal/recmutex.o
 .bss.uxControllingCycles
                0x0000000020000278        0x4 ../../Common/Minimal/recmutex.o
 .bss.uxPollingCycles
                0x000000002000027c        0x4 ../../Common/Minimal/recmutex.o
 .bss.uxLastPollingCycles.1571
                0x0000000020000280        0x4 ../../Common/Minimal/recmutex.o
 .bss.uxLastBlockingCycles.1570
                0x0000000020000284        0x4 ../../Common/Minimal/recmutex.o
 .bss.uxLastControllingCycles.1569
                0x0000000020000288        0x4 ../../Common/Minimal/recmutex.o
 .bss.xMutex    0x000000002000028c        0x4 ../../Common/Minimal/recmutex.o
 .bss.uxBlockingCycles
                0x0000000020000290        0x4 ../../Common/Minimal/recmutex.o
 .bss.xControllingTaskHandle
                0x0000000020000294        0x4 ../../Common/Minimal/recmutex.o
 .bss.xBlockingTaskHandle
                0x0000000020000298        0x4 ../../Common/Minimal/recmutex.o
 .bss           0x000000002000029c        0x0 ../../Common/Minimal/IntQueue.o
 .bss.uxHighPriorityLoops1
                0x000000002000029c        0x4 ../../Common/Minimal/IntQueue.o
 .bss.uxHighPriorityLoops2
                0x00000000200002a0        0x4 ../../Common/Minimal/IntQueue.o
 .bss.uxLowPriorityLoops1
                0x00000000200002a4        0x4 ../../Common/Minimal/IntQueue.o
 .bss.uxLowPriorityLoops2
                0x00000000200002a8        0x4 ../../Common/Minimal/IntQueue.o
 .bss.xErrorLine
                0x00000000200002ac        0x4 ../../Common/Minimal/IntQueue.o
 .bss.xWasSuspended
                0x00000000200002b0        0x4 ../../Common/Minimal/IntQueue.o
 .bss.uxValueForNormallyEmptyQueue
                0x00000000200002b4        0x4 ../../Common/Minimal/IntQueue.o
                0x00000000200002b4                uxValueForNormallyEmptyQueue
 .bss.uxValueForNormallyFullQueue
                0x00000000200002b8        0x4 ../../Common/Minimal/IntQueue.o
                0x00000000200002b8                uxValueForNormallyFullQueue
 .bss.ucNormallyEmptyReceivedValues
                0x00000000200002bc       0xc8 ../../Common/Minimal/IntQueue.o
 .bss.ucNormallyFullReceivedValues
                0x0000000020000384       0xc8 ../../Common/Minimal/IntQueue.o
 .bss.uxNextOperation.2060
                0x000000002000044c        0x4 ../../Common/Minimal/IntQueue.o
 .bss.uxNextOperation.2119
                0x0000000020000450        0x4 ../../Common/Minimal/IntQueue.o
 .bss.uxLastLowPriorityLoops2.2202
                0x0000000020000454        0x4 ../../Common/Minimal/IntQueue.o
 .bss.uxLastLowPriorityLoops1.2201
                0x0000000020000458        0x4 ../../Common/Minimal/IntQueue.o
 .bss.uxLastHighPriorityLoops2.2200
                0x000000002000045c        0x4 ../../Common/Minimal/IntQueue.o
 .bss.uxLastHighPriorityLoops1.2199
                0x0000000020000460        0x4 ../../Common/Minimal/IntQueue.o
 .bss.xNormallyEmptyQueue
                0x0000000020000464        0x4 ../../Common/Minimal/IntQueue.o
 .bss.xNormallyFullQueue
                0x0000000020000468        0x4 ../../Common/Minimal/IntQueue.o
 .bss           0x000000002000046c        0x0 ./IntQueueTimer.o
 .bss           0x000000002000046c        0x0 ./webserver/uIP_Task.o
 .bss.cMessageForDisplay.2437
                0x000000002000046c       0x20 ./webserver/uIP_Task.o
 .bss           0x000000002000048c        0x0 ./webserver/emac.o
 .bss.xEMACSemaphore
                0x000000002000048c        0x4 ./webserver/emac.o
                0x000000002000048c                xEMACSemaphore
 .bss.xMACInterruptSemaphore
                0x0000000020000490        0x4 ./webserver/emac.o
                0x0000000020000490                xMACInterruptSemaphore
 .bss.ulNextRxBuffer.1943
                0x0000000020000494        0x4 ./webserver/emac.o
 .bss.ulNextRxBuffer.2013
                0x0000000020000498        0x4 ./webserver/emac.o
 .bss.ucRxBuffers
                0x000000002000049c     0x1d74 ./webserver/emac.o
 .bss.ulRxLength
                0x0000000020002210       0x14 ./webserver/emac.o
 .bss.ulNextTxSpace
                0x0000000020002224        0x4 ./webserver/emac.o
 .bss           0x0000000020002228        0x0 ./webserver/httpd.o
 .bss           0x0000000020002228        0x0 ./webserver/httpd-cgi.o
 .bss.lRefreshCount
                0x0000000020002228        0x4 ./webserver/httpd-cgi.o
                0x0000000020002228                lRefreshCount
 .bss.cCountBuf
                0x000000002000222c       0x20 ./webserver/httpd-cgi.o
 .bss           0x000000002000224c        0x0 ./webserver/httpd-fs.o
 .bss.count     0x000000002000224c        0xe ./webserver/httpd-fs.o
 .bss           0x000000002000225a        0x0 ./webserver/http-strings.o
 .bss           0x000000002000225a        0x0 ../../Common/ethernet/uIP/uip-1.0/uip/uip_arp.o
 .bss.arp_table
                0x000000002000225a       0x60 ../../Common/ethernet/uIP/uip-1.0/uip/uip_arp.o
 .bss.ipaddr    0x00000000200022ba        0x4 ../../Common/ethernet/uIP/uip-1.0/uip/uip_arp.o
 .bss.i         0x00000000200022be        0x1 ../../Common/ethernet/uIP/uip-1.0/uip/uip_arp.o
 .bss.c         0x00000000200022bf        0x1 ../../Common/ethernet/uIP/uip-1.0/uip/uip_arp.o
 .bss.arptime   0x00000000200022c0        0x1 ../../Common/ethernet/uIP/uip-1.0/uip/uip_arp.o
 .bss.tmpage    0x00000000200022c1        0x1 ../../Common/ethernet/uIP/uip-1.0/uip/uip_arp.o
 .bss           0x00000000200022c2        0x0 ../../Common/ethernet/uIP/uip-1.0/uip/psock.o
 .bss           0x00000000200022c2        0x0 ../../Common/ethernet/uIP/uip-1.0/uip/timer.o
 .bss           0x00000000200022c2        0x0 ../../Common/ethernet/uIP/uip-1.0/uip/uip.o
 .bss.uip_ethaddr
                0x00000000200022c2        0x6 ../../Common/ethernet/uIP/uip-1.0/uip/uip.o
                0x00000000200022c2                uip_ethaddr
 .bss.ipid      0x00000000200022c8        0x2 ../../Common/ethernet/uIP/uip-1.0/uip/uip.o
 .bss.iss       0x00000000200022ca        0x4 ../../Common/ethernet/uIP/uip-1.0/uip/uip.o
 .bss.lastport  0x00000000200022ce        0x2 ../../Common/ethernet/uIP/uip-1.0/uip/uip.o
 .bss.c         0x00000000200022d0        0x1 ../../Common/ethernet/uIP/uip-1.0/uip/uip.o
 .bss.opt       0x00000000200022d1        0x1 ../../Common/ethernet/uIP/uip-1.0/uip/uip.o
 .bss.tmp16     0x00000000200022d2        0x2 ../../Common/ethernet/uIP/uip-1.0/uip/uip.o
 .bss           0x00000000200022d4        0x0 ../../Source/list.o
 .bss           0x00000000200022d4        0x0 ../../Source/queue.o
 .bss           0x00000000200022d4        0x0 ../../Source/tasks.o
 .bss.pxCurrentTCB
                0x00000000200022d4        0x4 ../../Source/tasks.o
                0x00000000200022d4                pxCurrentTCB
 .bss.uxTasksDeleted
                0x00000000200022d8        0x4 ../../Source/tasks.o
 .bss.uxCurrentNumberOfTasks
                0x00000000200022dc        0x4 ../../Source/tasks.o
 .bss.xTickCount
                0x00000000200022e0        0x4 ../../Source/tasks.o
 .bss.uxTopUsedPriority
                0x00000000200022e4        0x4 ../../Source/tasks.o
 .bss.uxTopReadyPriority
                0x00000000200022e8        0x4 ../../Source/tasks.o
 .bss.xSchedulerRunning
                0x00000000200022ec        0x4 ../../Source/tasks.o
 .bss.uxSchedulerSuspended
                0x00000000200022f0        0x4 ../../Source/tasks.o
 .bss.uxMissedTicks
                0x00000000200022f4        0x4 ../../Source/tasks.o
 .bss.xMissedYield
                0x00000000200022f8        0x4 ../../Source/tasks.o
 .bss.xNumOfOverflows
                0x00000000200022fc        0x4 ../../Source/tasks.o
 .bss.uxTaskNumber
                0x0000000020002300        0x4 ../../Source/tasks.o
 .bss.ulTaskSwitchedInTime
                0x0000000020002304        0x4 ../../Source/tasks.o
 .bss.xTracing  0x0000000020002308        0x4 ../../Source/tasks.o
 .bss.pxReadyTasksLists
                0x000000002000230c       0x64 ../../Source/tasks.o
 .bss.xDelayedTaskList1
                0x0000000020002370       0x14 ../../Source/tasks.o
 .bss.xDelayedTaskList2
                0x0000000020002384       0x14 ../../Source/tasks.o
 .bss.pxDelayedTaskList
                0x0000000020002398        0x4 ../../Source/tasks.o
 .bss.pxOverflowDelayedTaskList
                0x000000002000239c        0x4 ../../Source/tasks.o
 .bss.xPendingReadyList
                0x00000000200023a0       0x14 ../../Source/tasks.o
 .bss.xTasksWaitingTermination
                0x00000000200023b4       0x14 ../../Source/tasks.o
 .bss.xSuspendedTaskList
                0x00000000200023c8       0x14 ../../Source/tasks.o
 .bss.pcStatsString
                0x00000000200023dc       0x32 ../../Source/tasks.o
 *fill*         0x000000002000240e        0x2 00
 .bss.pcTraceBuffer
                0x0000000020002410        0x4 ../../Source/tasks.o
 .bss.pcTraceBufferStart
                0x0000000020002414        0x4 ../../Source/tasks.o
 .bss.pcTraceBufferEnd
                0x0000000020002418        0x4 ../../Source/tasks.o
 .bss.pcStatusString
                0x000000002000241c       0x32 ../../Source/tasks.o
 .bss           0x000000002000244e        0x0 ../../Source/portable/GCC/ARM_CM3/port.o
 .bss           0x000000002000244e        0x0 ../../Source/portable/MemMang/heap_2.o
 *fill*         0x000000002000244e        0x2 00
 .bss.xHeapHasBeenInitialised.1938
                0x0000000020002450        0x4 ../../Source/portable/MemMang/heap_2.o
 .bss.xHeap     0x0000000020002454     0x5dc0 ../../Source/portable/MemMang/heap_2.o
 .bss.xStart    0x0000000020008214        0x8 ../../Source/portable/MemMang/heap_2.o
 .bss.xEnd      0x000000002000821c        0x8 ../../Source/portable/MemMang/heap_2.o
 .bss           0x0000000020008224        0x0 startup.o
 .bss.pulStack  0x0000000020008224      0x1e0 startup.o
 .bss           0x0000000020008404        0x0 ../../Common/drivers/LuminaryMicro/arm-none-eabi-gcc/libdriver.a(ethernet.o)
 .bss           0x0000000020008404        0x0 ../../Common/drivers/LuminaryMicro/arm-none-eabi-gcc/libdriver.a(flash.o)
 .bss           0x0000000020008404        0x0 ../../Common/drivers/LuminaryMicro/arm-none-eabi-gcc/libdriver.a(gpio.o)
 .bss           0x0000000020008404        0x0 ../../Common/drivers/LuminaryMicro/arm-none-eabi-gcc/libdriver.a(interrupt.o)
 .bss           0x0000000020008404        0x0 ../../Common/drivers/LuminaryMicro/arm-none-eabi-gcc/libdriver.a(ssi.o)
 .bss           0x0000000020008404        0x0 ../../Common/drivers/LuminaryMicro/arm-none-eabi-gcc/libdriver.a(sysctl.o)
 .bss           0x0000000020008404        0x0 ../../Common/drivers/LuminaryMicro/arm-none-eabi-gcc/libdriver.a(timer.o)
 .bss           0x0000000020008404        0x0 ../../Common/drivers/LuminaryMicro/arm-none-eabi-gcc/libdriver.a(cpu.o)
 .bss           0x0000000020008404        0x0 ../../Common/drivers/LuminaryMicro/arm-none-eabi-gcc/libgr.a(context.o)
 .bss           0x0000000020008404        0x0 ../../Common/drivers/LuminaryMicro/arm-none-eabi-gcc/libgr.a(fontcmss12.o)
 .bss           0x0000000020008404        0x0 ../../Common/drivers/LuminaryMicro/arm-none-eabi-gcc/libgr.a(image.o)
 .bss.g_pucDictionary
                0x0000000020008404       0x20 ../../Common/drivers/LuminaryMicro/arm-none-eabi-gcc/libgr.a(image.o)
 .bss           0x0000000020008424        0x0 ../../Common/drivers/LuminaryMicro/arm-none-eabi-gcc/libgr.a(rectangle.o)
 .bss           0x0000000020008424        0x0 ../../Common/drivers/LuminaryMicro/arm-none-eabi-gcc/libgr.a(string.o)
 .bss           0x0000000020008424        0x0 ../../Common/drivers/LuminaryMicro/arm-none-eabi-gcc/libgr.a(line.o)
 .bss           0x0000000020008424        0x0 /opt/arm-cortex-toolchain/lib/gcc/arm-none-eabi/4.3.3/../../../../arm-none-eabi/lib/thumb/libg.a(lib_a-memcmp.o)
 .bss           0x0000000020008424        0x0 /opt/arm-cortex-toolchain/lib/gcc/arm-none-eabi/4.3.3/../../../../arm-none-eabi/lib/thumb/libg.a(lib_a-memcpy.o)
 .bss           0x0000000020008424        0x0 /opt/arm-cortex-toolchain/lib/gcc/arm-none-eabi/4.3.3/../../../../arm-none-eabi/lib/thumb/libg.a(lib_a-memset.o)
 .bss           0x0000000020008424        0x0 /opt/arm-cortex-toolchain/lib/gcc/arm-none-eabi/4.3.3/../../../../arm-none-eabi/lib/thumb/libg.a(lib_a-strcat.o)
 .bss           0x0000000020008424        0x0 /opt/arm-cortex-toolchain/lib/gcc/arm-none-eabi/4.3.3/../../../../arm-none-eabi/lib/thumb/libg.a(lib_a-strchr.o)
 .bss           0x0000000020008424        0x0 /opt/arm-cortex-toolchain/lib/gcc/arm-none-eabi/4.3.3/../../../../arm-none-eabi/lib/thumb/libg.a(lib_a-strcpy.o)
 .bss           0x0000000020008424        0x0 /opt/arm-cortex-toolchain/lib/gcc/arm-none-eabi/4.3.3/../../../../arm-none-eabi/lib/thumb/libg.a(lib_a-strlen.o)
 .bss           0x0000000020008424        0x0 /opt/arm-cortex-toolchain/lib/gcc/arm-none-eabi/4.3.3/../../../../arm-none-eabi/lib/thumb/libg.a(lib_a-strncmp.o)
 .bss           0x0000000020008424        0x0 /opt/arm-cortex-toolchain/lib/gcc/arm-none-eabi/4.3.3/../../../../arm-none-eabi/lib/thumb/libg.a(lib_a-strncpy.o)
 .bss           0x0000000020008424        0x0 /opt/arm-cortex-toolchain/lib/gcc/arm-none-eabi/4.3.3/../../../../arm-none-eabi/lib/thumb/libg.a(lib_a-strrchr.o)
 .bss           0x0000000020008424        0x0 /opt/arm-cortex-toolchain/lib/gcc/arm-none-eabi/4.3.3/../../../../arm-none-eabi/lib/thumb/libg.a(lib_a-strstr.o)
 .bss           0x0000000020008424        0x0 /opt/arm-cortex-toolchain/lib/gcc/arm-none-eabi/4.3.3/../../../../arm-none-eabi/lib/thumb/libg.a(lib_a-memchr.o)
 *(COMMON)
 COMMON         0x0000000020008424        0x4 main.o
                0x0000000020008424                xOLEDQueue
 COMMON         0x0000000020008428        0x4 ../../Common/Minimal/death.o
                0x0000000020008428                xCreatedTask
 COMMON         0x000000002000842c        0xc ../../Common/Minimal/QPeek.o
                0x000000002000842c                xHighPriorityTask
                0x0000000020008430                xMediumPriorityTask
                0x0000000020008434                xHighestPriorityTask
 COMMON         0x0000000020008438       0x10 ../../Common/Minimal/IntQueue.o
                0x0000000020008438                xHighPriorityNormallyEmptyTask2
                0x000000002000843c                xHighPriorityNormallyFullTask1
                0x0000000020008440                xHighPriorityNormallyEmptyTask1
                0x0000000020008444                xHighPriorityNormallyFullTask2
 COMMON         0x0000000020008448        0x4 ./webserver/emac.o
                0x0000000020008448                uip_buf
 COMMON         0x000000002000844c        0x4 ./webserver/httpd-cgi.o
                0x000000002000844c                pcStatus
 COMMON         0x0000000020008450     0x2082 ../../Common/ethernet/uIP/uip-1.0/uip/uip.o
                0x0000000020008450                uip_len
                0x0000000020008454                uip_sappdata
                0x0000000020008458                uip_acc32
                0x000000002000845c                uip_flags
                0x0000000020008460                uip_appdata
                0x0000000020008464                uip_conn
                0x0000000020008468                uip_conns
                0x000000002000a448                uip_listenports
                0x000000002000a498                uip_draddr
                0x000000002000a49c                uip_stat
                0x000000002000a4c8                uip_netmask
                0x000000002000a4cc                uip_hostaddr
                0x000000002000a4d0                uip_slen
 *fill*         0x000000002000a4d2        0x2 00
 COMMON         0x000000002000a4d4       0x50 ../../Source/queue.o
                0x000000002000a4d4                xQueueRegistry
                0x000000002000a524                _ebss = .
OUTPUT(Luminary_Webinterface.axf elf32-littlearm)

.debug_abbrev   0x0000000000000000     0x2da9
 .debug_abbrev  0x0000000000000000      0x153 main.o
 .debug_abbrev  0x0000000000000153       0x6a timertest.o
 .debug_abbrev  0x00000000000001bd       0xd9 rit128x96x4.o
 .debug_abbrev  0x0000000000000296       0xc8 osram128x64x4.o
 .debug_abbrev  0x000000000000035e      0x1df formike128x128x16.o
 .debug_abbrev  0x000000000000053d       0x7e ./ParTest/ParTest.o
 .debug_abbrev  0x00000000000005bb       0xe8 ../../Common/drivers/LuminaryMicro/ustdlib.o
 .debug_abbrev  0x00000000000006a3      0x102 ../../Common/Minimal/BlockQ.o
 .debug_abbrev  0x00000000000007a5       0xdb ../../Common/Minimal/blocktim.o
 .debug_abbrev  0x0000000000000880       0xe3 ../../Common/Minimal/death.o
 .debug_abbrev  0x0000000000000963       0xc1 ../../Common/Minimal/integer.o
 .debug_abbrev  0x0000000000000a24       0xb3 ../../Common/Minimal/PollQ.o
 .debug_abbrev  0x0000000000000ad7      0x102 ../../Common/Minimal/semtest.o
 .debug_abbrev  0x0000000000000bd9       0xe6 ../../Common/Minimal/GenQTest.o
 .debug_abbrev  0x0000000000000cbf       0xf7 ../../Common/Minimal/QPeek.o
 .debug_abbrev  0x0000000000000db6       0xea ../../Common/Minimal/recmutex.o
 .debug_abbrev  0x0000000000000ea0      0x121 ../../Common/Minimal/IntQueue.o
 .debug_abbrev  0x0000000000000fc1       0x67 ./IntQueueTimer.o
 .debug_abbrev  0x0000000000001028      0x1df ./webserver/uIP_Task.o
 .debug_abbrev  0x0000000000001207       0xf0 ./webserver/emac.o
 .debug_abbrev  0x00000000000012f7      0x1c6 ./webserver/httpd.o
 .debug_abbrev  0x00000000000014bd      0x1c8 ./webserver/httpd-cgi.o
 .debug_abbrev  0x0000000000001685      0x144 ./webserver/httpd-fs.o
 .debug_abbrev  0x00000000000017c9       0x52 ./webserver/http-strings.o
 .debug_abbrev  0x000000000000181b      0x18a ../../Common/ethernet/uIP/uip-1.0/uip/uip_arp.o
 .debug_abbrev  0x00000000000019a5      0x1de ../../Common/ethernet/uIP/uip-1.0/uip/psock.o
 .debug_abbrev  0x0000000000001b83       0xac ../../Common/ethernet/uIP/uip-1.0/uip/timer.o
 .debug_abbrev  0x0000000000001c2f      0x235 ../../Common/ethernet/uIP/uip-1.0/uip/uip.o
 .debug_abbrev  0x0000000000001e64       0xca ../../Source/list.o
 .debug_abbrev  0x0000000000001f2e      0x16f ../../Source/queue.o
 .debug_abbrev  0x000000000000209d      0x19d ../../Source/tasks.o
 .debug_abbrev  0x000000000000223a      0x113 ../../Source/portable/GCC/ARM_CM3/port.o
 .debug_abbrev  0x000000000000234d      0x12c ../../Source/portable/MemMang/heap_2.o
 .debug_abbrev  0x0000000000002479      0x102 startup.o
 .debug_abbrev  0x000000000000257b       0x85 /opt/arm-cortex-toolchain/lib/gcc/arm-none-eabi/4.3.3/../../../../arm-none-eabi/lib/thumb/libg.a(lib_a-memcmp.o)
 .debug_abbrev  0x0000000000002600       0xa2 /opt/arm-cortex-toolchain/lib/gcc/arm-none-eabi/4.3.3/../../../../arm-none-eabi/lib/thumb/libg.a(lib_a-memcpy.o)
 .debug_abbrev  0x00000000000026a2       0xa3 /opt/arm-cortex-toolchain/lib/gcc/arm-none-eabi/4.3.3/../../../../arm-none-eabi/lib/thumb/libg.a(lib_a-memset.o)
 .debug_abbrev  0x0000000000002745       0x90 /opt/arm-cortex-toolchain/lib/gcc/arm-none-eabi/4.3.3/../../../../arm-none-eabi/lib/thumb/libg.a(lib_a-strcat.o)
 .debug_abbrev  0x00000000000027d5       0x96 /opt/arm-cortex-toolchain/lib/gcc/arm-none-eabi/4.3.3/../../../../arm-none-eabi/lib/thumb/libg.a(lib_a-strchr.o)
 .debug_abbrev  0x000000000000286b       0xa7 /opt/arm-cortex-toolchain/lib/gcc/arm-none-eabi/4.3.3/../../../../arm-none-eabi/lib/thumb/libg.a(lib_a-strcpy.o)
 .debug_abbrev  0x0000000000002912       0x94 /opt/arm-cortex-toolchain/lib/gcc/arm-none-eabi/4.3.3/../../../../arm-none-eabi/lib/thumb/libg.a(lib_a-strlen.o)
 .debug_abbrev  0x00000000000029a6       0x96 /opt/arm-cortex-toolchain/lib/gcc/arm-none-eabi/4.3.3/../../../../arm-none-eabi/lib/thumb/libg.a(lib_a-strncmp.o)
 .debug_abbrev  0x0000000000002a3c       0x96 /opt/arm-cortex-toolchain/lib/gcc/arm-none-eabi/4.3.3/../../../../arm-none-eabi/lib/thumb/libg.a(lib_a-strncpy.o)
 .debug_abbrev  0x0000000000002ad2       0x78 /opt/arm-cortex-toolchain/lib/gcc/arm-none-eabi/4.3.3/../../../../arm-none-eabi/lib/thumb/libg.a(lib_a-strrchr.o)
 .debug_abbrev  0x0000000000002b4a      0x1a1 /opt/arm-cortex-toolchain/lib/gcc/arm-none-eabi/4.3.3/../../../../arm-none-eabi/lib/thumb/libg.a(lib_a-strstr.o)
 .debug_abbrev  0x0000000000002ceb       0xbe /opt/arm-cortex-toolchain/lib/gcc/arm-none-eabi/4.3.3/../../../../arm-none-eabi/lib/thumb/libg.a(lib_a-memchr.o)

.debug_info     0x0000000000000000     0xa5cd
 .debug_info    0x0000000000000000      0x371 main.o
 .debug_info    0x0000000000000371       0xf6 timertest.o
 .debug_info    0x0000000000000467      0x457 rit128x96x4.o
 .debug_info    0x00000000000008be      0x434 osram128x64x4.o
 .debug_info    0x0000000000000cf2      0x87b formike128x128x16.o
 .debug_info    0x000000000000156d       0xc0 ./ParTest/ParTest.o
 .debug_info    0x000000000000162d      0x253 ../../Common/drivers/LuminaryMicro/ustdlib.o
 .debug_info    0x0000000000001880      0x2f0 ../../Common/Minimal/BlockQ.o
 .debug_info    0x0000000000001b70      0x203 ../../Common/Minimal/blocktim.o
 .debug_info    0x0000000000001d73      0x21a ../../Common/Minimal/death.o
 .debug_info    0x0000000000001f8d      0x16e ../../Common/Minimal/integer.o
 .debug_info    0x00000000000020fb      0x1b5 ../../Common/Minimal/PollQ.o
 .debug_info    0x00000000000022b0      0x24d ../../Common/Minimal/semtest.o
 .debug_info    0x00000000000024fd      0x279 ../../Common/Minimal/GenQTest.o
 .debug_info    0x0000000000002776      0x261 ../../Common/Minimal/QPeek.o
 .debug_info    0x00000000000029d7      0x209 ../../Common/Minimal/recmutex.o
 .debug_info    0x0000000000002be0      0x658 ../../Common/Minimal/IntQueue.o
 .debug_info    0x0000000000003238       0x9f ./IntQueueTimer.o
 .debug_info    0x00000000000032d7      0x6c6 ./webserver/uIP_Task.o
 .debug_info    0x000000000000399d      0x2fb ./webserver/emac.o
 .debug_info    0x0000000000003c98      0x8c7 ./webserver/httpd.o
 .debug_info    0x000000000000455f      0xbfd ./webserver/httpd-cgi.o
 .debug_info    0x000000000000515c      0x4a3 ./webserver/httpd-fs.o
 .debug_info    0x00000000000055ff      0x43e ./webserver/http-strings.o
 .debug_info    0x0000000000005a3d      0x4a9 ../../Common/ethernet/uIP/uip-1.0/uip/uip_arp.o
 .debug_info    0x0000000000005ee6      0x79b ../../Common/ethernet/uIP/uip-1.0/uip/psock.o
 .debug_info    0x0000000000006681      0x126 ../../Common/ethernet/uIP/uip-1.0/uip/timer.o
 .debug_info    0x00000000000067a7      0xdfc ../../Common/ethernet/uIP/uip-1.0/uip/uip.o
 .debug_info    0x00000000000075a3      0x2b1 ../../Source/list.o
 .debug_info    0x0000000000007854      0x8b9 ../../Source/queue.o
 .debug_info    0x000000000000810d     0x102f ../../Source/tasks.o
 .debug_info    0x000000000000913c      0x1be ../../Source/portable/GCC/ARM_CM3/port.o
 .debug_info    0x00000000000092fa      0x274 ../../Source/portable/MemMang/heap_2.o
 .debug_info    0x000000000000956e      0x17b startup.o
 .debug_info    0x00000000000096e9      0x113 /opt/arm-cortex-toolchain/lib/gcc/arm-none-eabi/4.3.3/../../../../arm-none-eabi/lib/thumb/libg.a(lib_a-memcmp.o)
 .debug_info    0x00000000000097fc      0x142 /opt/arm-cortex-toolchain/lib/gcc/arm-none-eabi/4.3.3/../../../../arm-none-eabi/lib/thumb/libg.a(lib_a-memcpy.o)
 .debug_info    0x000000000000993e      0x115 /opt/arm-cortex-toolchain/lib/gcc/arm-none-eabi/4.3.3/../../../../arm-none-eabi/lib/thumb/libg.a(lib_a-memset.o)
 .debug_info    0x0000000000009a53       0xe9 /opt/arm-cortex-toolchain/lib/gcc/arm-none-eabi/4.3.3/../../../../arm-none-eabi/lib/thumb/libg.a(lib_a-strcat.o)
 .debug_info    0x0000000000009b3c      0x112 /opt/arm-cortex-toolchain/lib/gcc/arm-none-eabi/4.3.3/../../../../arm-none-eabi/lib/thumb/libg.a(lib_a-strchr.o)
 .debug_info    0x0000000000009c4e      0x10c /opt/arm-cortex-toolchain/lib/gcc/arm-none-eabi/4.3.3/../../../../arm-none-eabi/lib/thumb/libg.a(lib_a-strcpy.o)
 .debug_info    0x0000000000009d5a       0xd9 /opt/arm-cortex-toolchain/lib/gcc/arm-none-eabi/4.3.3/../../../../arm-none-eabi/lib/thumb/libg.a(lib_a-strlen.o)
 .debug_info    0x0000000000009e33       0xf3 /opt/arm-cortex-toolchain/lib/gcc/arm-none-eabi/4.3.3/../../../../arm-none-eabi/lib/thumb/libg.a(lib_a-strncmp.o)
 .debug_info    0x0000000000009f26      0x12a /opt/arm-cortex-toolchain/lib/gcc/arm-none-eabi/4.3.3/../../../../arm-none-eabi/lib/thumb/libg.a(lib_a-strncpy.o)
 .debug_info    0x000000000000a050       0xca /opt/arm-cortex-toolchain/lib/gcc/arm-none-eabi/4.3.3/../../../../arm-none-eabi/lib/thumb/libg.a(lib_a-strrchr.o)
 .debug_info    0x000000000000a11a      0x38c /opt/arm-cortex-toolchain/lib/gcc/arm-none-eabi/4.3.3/../../../../arm-none-eabi/lib/thumb/libg.a(lib_a-strstr.o)
 .debug_info    0x000000000000a4a6      0x127 /opt/arm-cortex-toolchain/lib/gcc/arm-none-eabi/4.3.3/../../../../arm-none-eabi/lib/thumb/libg.a(lib_a-memchr.o)

.debug_line     0x0000000000000000     0x3ee3
 .debug_line    0x0000000000000000      0x11b main.o
 .debug_line    0x000000000000011b       0x63 timertest.o
 .debug_line    0x000000000000017e      0x1a4 rit128x96x4.o
 .debug_line    0x0000000000000322      0x199 osram128x64x4.o
 .debug_line    0x00000000000004bb      0x238 formike128x128x16.o
 .debug_line    0x00000000000006f3       0x6a ./ParTest/ParTest.o
 .debug_line    0x000000000000075d      0x153 ../../Common/drivers/LuminaryMicro/ustdlib.o
 .debug_line    0x00000000000008b0      0x12b ../../Common/Minimal/BlockQ.o
 .debug_line    0x00000000000009db      0x17b ../../Common/Minimal/blocktim.o
 .debug_line    0x0000000000000b56      0x107 ../../Common/Minimal/death.o
 .debug_line    0x0000000000000c5d       0x8e ../../Common/Minimal/integer.o
 .debug_line    0x0000000000000ceb       0xca ../../Common/Minimal/PollQ.o
 .debug_line    0x0000000000000db5      0x125 ../../Common/Minimal/semtest.o
 .debug_line    0x0000000000000eda      0x162 ../../Common/Minimal/GenQTest.o
 .debug_line    0x000000000000103c      0x11f ../../Common/Minimal/QPeek.o
 .debug_line    0x000000000000115b      0x10c ../../Common/Minimal/recmutex.o
 .debug_line    0x0000000000001267      0x202 ../../Common/Minimal/IntQueue.o
 .debug_line    0x0000000000001469       0x78 ./IntQueueTimer.o
 .debug_line    0x00000000000014e1      0x248 ./webserver/uIP_Task.o
 .debug_line    0x0000000000001729      0x11e ./webserver/emac.o
 .debug_line    0x0000000000001847      0x281 ./webserver/httpd.o
 .debug_line    0x0000000000001ac8      0x26c ./webserver/httpd-cgi.o
 .debug_line    0x0000000000001d34      0x14a ./webserver/httpd-fs.o
 .debug_line    0x0000000000001e7e       0x39 ./webserver/http-strings.o
 .debug_line    0x0000000000001eb7      0x1b7 ../../Common/ethernet/uIP/uip-1.0/uip/uip_arp.o
 .debug_line    0x000000000000206e      0x275 ../../Common/ethernet/uIP/uip-1.0/uip/psock.o
 .debug_line    0x00000000000022e3       0xbe ../../Common/ethernet/uIP/uip-1.0/uip/timer.o
 .debug_line    0x00000000000023a1      0x46a ../../Common/ethernet/uIP/uip-1.0/uip/uip.o
 .debug_line    0x000000000000280b      0x110 ../../Source/list.o
 .debug_line    0x000000000000291b      0x331 ../../Source/queue.o
 .debug_line    0x0000000000002c4c      0x50d ../../Source/tasks.o
 .debug_line    0x0000000000003159      0x145 ../../Source/portable/GCC/ARM_CM3/port.o
 .debug_line    0x000000000000329e       0xd6 ../../Source/portable/MemMang/heap_2.o
 .debug_line    0x0000000000003374       0x86 startup.o
 .debug_line    0x00000000000033fa       0xd1 /opt/arm-cortex-toolchain/lib/gcc/arm-none-eabi/4.3.3/../../../../arm-none-eabi/lib/thumb/libg.a(lib_a-memcmp.o)
 .debug_line    0x00000000000034cb       0xe5 /opt/arm-cortex-toolchain/lib/gcc/arm-none-eabi/4.3.3/../../../../arm-none-eabi/lib/thumb/libg.a(lib_a-memcpy.o)
 .debug_line    0x00000000000035b0       0xe7 /opt/arm-cortex-toolchain/lib/gcc/arm-none-eabi/4.3.3/../../../../arm-none-eabi/lib/thumb/libg.a(lib_a-memset.o)
 .debug_line    0x0000000000003697       0x7a /opt/arm-cortex-toolchain/lib/gcc/arm-none-eabi/4.3.3/../../../../arm-none-eabi/lib/thumb/libg.a(lib_a-strcat.o)
 .debug_line    0x0000000000003711       0x96 /opt/arm-cortex-toolchain/lib/gcc/arm-none-eabi/4.3.3/../../../../arm-none-eabi/lib/thumb/libg.a(lib_a-strchr.o)
 .debug_line    0x00000000000037a7       0x7a /opt/arm-cortex-toolchain/lib/gcc/arm-none-eabi/4.3.3/../../../../arm-none-eabi/lib/thumb/libg.a(lib_a-strcpy.o)
 .debug_line    0x0000000000003821       0xcb /opt/arm-cortex-toolchain/lib/gcc/arm-none-eabi/4.3.3/../../../../arm-none-eabi/lib/thumb/libg.a(lib_a-strlen.o)
 .debug_line    0x00000000000038ec       0xe1 /opt/arm-cortex-toolchain/lib/gcc/arm-none-eabi/4.3.3/../../../../arm-none-eabi/lib/thumb/libg.a(lib_a-strncmp.o)
 .debug_line    0x00000000000039cd       0xd9 /opt/arm-cortex-toolchain/lib/gcc/arm-none-eabi/4.3.3/../../../../arm-none-eabi/lib/thumb/libg.a(lib_a-strncpy.o)
 .debug_line    0x0000000000003aa6       0x74 /opt/arm-cortex-toolchain/lib/gcc/arm-none-eabi/4.3.3/../../../../arm-none-eabi/lib/thumb/libg.a(lib_a-strrchr.o)
 .debug_line    0x0000000000003b1a      0x2e7 /opt/arm-cortex-toolchain/lib/gcc/arm-none-eabi/4.3.3/../../../../arm-none-eabi/lib/thumb/libg.a(lib_a-strstr.o)
 .debug_line    0x0000000000003e01       0xe2 /opt/arm-cortex-toolchain/lib/gcc/arm-none-eabi/4.3.3/../../../../arm-none-eabi/lib/thumb/libg.a(lib_a-memchr.o)

.debug_frame    0x0000000000000000     0x2408
 .debug_frame   0x0000000000000000       0xa8 main.o
 .debug_frame   0x00000000000000a8       0x50 timertest.o
 .debug_frame   0x00000000000000f8      0x14c rit128x96x4.o
 .debug_frame   0x0000000000000244      0x14c osram128x64x4.o
 .debug_frame   0x0000000000000390      0x1f0 formike128x128x16.o
 .debug_frame   0x0000000000000580       0x6c ./ParTest/ParTest.o
 .debug_frame   0x00000000000005ec       0x7c ../../Common/drivers/LuminaryMicro/ustdlib.o
 .debug_frame   0x0000000000000668       0x8c ../../Common/Minimal/BlockQ.o
 .debug_frame   0x00000000000006f4       0x8c ../../Common/Minimal/blocktim.o
 .debug_frame   0x0000000000000780       0x90 ../../Common/Minimal/death.o
 .debug_frame   0x0000000000000810       0x6c ../../Common/Minimal/integer.o
 .debug_frame   0x000000000000087c       0x8c ../../Common/Minimal/PollQ.o
 .debug_frame   0x0000000000000908       0x6c ../../Common/Minimal/semtest.o
 .debug_frame   0x0000000000000974       0xc8 ../../Common/Minimal/GenQTest.o
 .debug_frame   0x0000000000000a3c       0xc8 ../../Common/Minimal/QPeek.o
 .debug_frame   0x0000000000000b04       0xac ../../Common/Minimal/recmutex.o
 .debug_frame   0x0000000000000bb0      0x188 ../../Common/Minimal/IntQueue.o
 .debug_frame   0x0000000000000d38       0x68 ./IntQueueTimer.o
 .debug_frame   0x0000000000000da0       0xc0 ./webserver/uIP_Task.o
 .debug_frame   0x0000000000000e60       0xe0 ./webserver/emac.o
 .debug_frame   0x0000000000000f40      0x16c ./webserver/httpd.o
 .debug_frame   0x00000000000010ac      0x1cc ./webserver/httpd-cgi.o
 .debug_frame   0x0000000000001278       0x88 ./webserver/httpd-fs.o
 .debug_frame   0x0000000000001300       0xc8 ../../Common/ethernet/uIP/uip-1.0/uip/uip_arp.o
 .debug_frame   0x00000000000013c8      0x17c ../../Common/ethernet/uIP/uip-1.0/uip/psock.o
 .debug_frame   0x0000000000001544       0x8c ../../Common/ethernet/uIP/uip-1.0/uip/timer.o
 .debug_frame   0x00000000000015d0      0x1e8 ../../Common/ethernet/uIP/uip-1.0/uip/uip.o
 .debug_frame   0x00000000000017b8       0x9c ../../Source/list.o
 .debug_frame   0x0000000000001854      0x27c ../../Source/queue.o
 .debug_frame   0x0000000000001ad0      0x4e0 ../../Source/tasks.o
 .debug_frame   0x0000000000001fb0      0x110 ../../Source/portable/GCC/ARM_CM3/port.o
 .debug_frame   0x00000000000020c0       0x50 ../../Source/portable/MemMang/heap_2.o
 .debug_frame   0x0000000000002110       0x74 startup.o
 .debug_frame   0x0000000000002184       0x2c /opt/arm-cortex-toolchain/lib/gcc/arm-none-eabi/4.3.3/../../../../arm-none-eabi/lib/thumb/libg.a(lib_a-memcmp.o)
 .debug_frame   0x00000000000021b0       0x30 /opt/arm-cortex-toolchain/lib/gcc/arm-none-eabi/4.3.3/../../../../arm-none-eabi/lib/thumb/libg.a(lib_a-memcpy.o)
 .debug_frame   0x00000000000021e0       0x30 /opt/arm-cortex-toolchain/lib/gcc/arm-none-eabi/4.3.3/../../../../arm-none-eabi/lib/thumb/libg.a(lib_a-memset.o)
 .debug_frame   0x0000000000002210       0x2c /opt/arm-cortex-toolchain/lib/gcc/arm-none-eabi/4.3.3/../../../../arm-none-eabi/lib/thumb/libg.a(lib_a-strcat.o)
 .debug_frame   0x000000000000223c       0x2c /opt/arm-cortex-toolchain/lib/gcc/arm-none-eabi/4.3.3/../../../../arm-none-eabi/lib/thumb/libg.a(lib_a-strchr.o)
 .debug_frame   0x0000000000002268       0x2c /opt/arm-cortex-toolchain/lib/gcc/arm-none-eabi/4.3.3/../../../../arm-none-eabi/lib/thumb/libg.a(lib_a-strcpy.o)
 .debug_frame   0x0000000000002294       0x2c /opt/arm-cortex-toolchain/lib/gcc/arm-none-eabi/4.3.3/../../../../arm-none-eabi/lib/thumb/libg.a(lib_a-strlen.o)
 .debug_frame   0x00000000000022c0       0x2c /opt/arm-cortex-toolchain/lib/gcc/arm-none-eabi/4.3.3/../../../../arm-none-eabi/lib/thumb/libg.a(lib_a-strncmp.o)
 .debug_frame   0x00000000000022ec       0x30 /opt/arm-cortex-toolchain/lib/gcc/arm-none-eabi/4.3.3/../../../../arm-none-eabi/lib/thumb/libg.a(lib_a-strncpy.o)
 .debug_frame   0x000000000000231c       0x2c /opt/arm-cortex-toolchain/lib/gcc/arm-none-eabi/4.3.3/../../../../arm-none-eabi/lib/thumb/libg.a(lib_a-strrchr.o)
 .debug_frame   0x0000000000002348       0x90 /opt/arm-cortex-toolchain/lib/gcc/arm-none-eabi/4.3.3/../../../../arm-none-eabi/lib/thumb/libg.a(lib_a-strstr.o)
 .debug_frame   0x00000000000023d8       0x30 /opt/arm-cortex-toolchain/lib/gcc/arm-none-eabi/4.3.3/../../../../arm-none-eabi/lib/thumb/libg.a(lib_a-memchr.o)

.debug_loc      0x0000000000000000     0x4b2a
 .debug_loc     0x0000000000000000      0x108 main.o
 .debug_loc     0x0000000000000108       0x6e timertest.o
 .debug_loc     0x0000000000000176      0x21a rit128x96x4.o
 .debug_loc     0x0000000000000390      0x21a osram128x64x4.o
 .debug_loc     0x00000000000005aa      0x358 formike128x128x16.o
 .debug_loc     0x0000000000000902       0x99 ./ParTest/ParTest.o
 .debug_loc     0x000000000000099b       0xbd ../../Common/drivers/LuminaryMicro/ustdlib.o
 .debug_loc     0x0000000000000a58       0xdd ../../Common/Minimal/BlockQ.o
 .debug_loc     0x0000000000000b35       0xdc ../../Common/Minimal/blocktim.o
 .debug_loc     0x0000000000000c11       0xdc ../../Common/Minimal/death.o
 .debug_loc     0x0000000000000ced       0xa5 ../../Common/Minimal/integer.o
 .debug_loc     0x0000000000000d92       0xdc ../../Common/Minimal/PollQ.o
 .debug_loc     0x0000000000000e6e       0xa5 ../../Common/Minimal/semtest.o
 .debug_loc     0x0000000000000f13      0x13e ../../Common/Minimal/GenQTest.o
 .debug_loc     0x0000000000001051      0x13e ../../Common/Minimal/QPeek.o
 .debug_loc     0x000000000000118f      0x113 ../../Common/Minimal/recmutex.o
 .debug_loc     0x00000000000012a2      0x288 ../../Common/Minimal/IntQueue.o
 .debug_loc     0x000000000000152a       0x8d ./IntQueueTimer.o
 .debug_loc     0x00000000000015b7      0x126 ./webserver/uIP_Task.o
 .debug_loc     0x00000000000016dd      0x175 ./webserver/emac.o
 .debug_loc     0x0000000000001852      0x251 ./webserver/httpd.o
 .debug_loc     0x0000000000001aa3      0x304 ./webserver/httpd-cgi.o
 .debug_loc     0x0000000000001da7       0xdc ./webserver/httpd-fs.o
 .debug_loc     0x0000000000001e83      0x132 ../../Common/ethernet/uIP/uip-1.0/uip/uip_arp.o
 .debug_loc     0x0000000000001fb5      0x294 ../../Common/ethernet/uIP/uip-1.0/uip/psock.o
 .debug_loc     0x0000000000002249       0xdc ../../Common/ethernet/uIP/uip-1.0/uip/timer.o
 .debug_loc     0x0000000000002325      0x34c ../../Common/ethernet/uIP/uip-1.0/uip/uip.o
 .debug_loc     0x0000000000002671      0x113 ../../Source/list.o
 .debug_loc     0x0000000000002784      0x44c ../../Source/queue.o
 .debug_loc     0x0000000000002bd0      0x85d ../../Source/tasks.o
 .debug_loc     0x000000000000342d      0x170 ../../Source/portable/GCC/ARM_CM3/port.o
 .debug_loc     0x000000000000359d       0x6e ../../Source/portable/MemMang/heap_2.o
 .debug_loc     0x000000000000360b       0x5d startup.o
 .debug_loc     0x0000000000003668      0x149 /opt/arm-cortex-toolchain/lib/gcc/arm-none-eabi/4.3.3/../../../../arm-none-eabi/lib/thumb/libg.a(lib_a-memcmp.o)
 .debug_loc     0x00000000000037b1      0x172 /opt/arm-cortex-toolchain/lib/gcc/arm-none-eabi/4.3.3/../../../../arm-none-eabi/lib/thumb/libg.a(lib_a-memcpy.o)
 .debug_loc     0x0000000000003923      0x154 /opt/arm-cortex-toolchain/lib/gcc/arm-none-eabi/4.3.3/../../../../arm-none-eabi/lib/thumb/libg.a(lib_a-memset.o)
 .debug_loc     0x0000000000003a77       0x8f /opt/arm-cortex-toolchain/lib/gcc/arm-none-eabi/4.3.3/../../../../arm-none-eabi/lib/thumb/libg.a(lib_a-strcat.o)
 .debug_loc     0x0000000000003b06      0x178 /opt/arm-cortex-toolchain/lib/gcc/arm-none-eabi/4.3.3/../../../../arm-none-eabi/lib/thumb/libg.a(lib_a-strchr.o)
 .debug_loc     0x0000000000003c7e       0x81 /opt/arm-cortex-toolchain/lib/gcc/arm-none-eabi/4.3.3/../../../../arm-none-eabi/lib/thumb/libg.a(lib_a-strcpy.o)
 .debug_loc     0x0000000000003cff       0x87 /opt/arm-cortex-toolchain/lib/gcc/arm-none-eabi/4.3.3/../../../../arm-none-eabi/lib/thumb/libg.a(lib_a-strlen.o)
 .debug_loc     0x0000000000003d86       0xa2 /opt/arm-cortex-toolchain/lib/gcc/arm-none-eabi/4.3.3/../../../../arm-none-eabi/lib/thumb/libg.a(lib_a-strncmp.o)
 .debug_loc     0x0000000000003e28      0x154 /opt/arm-cortex-toolchain/lib/gcc/arm-none-eabi/4.3.3/../../../../arm-none-eabi/lib/thumb/libg.a(lib_a-strncpy.o)
 .debug_loc     0x0000000000003f7c       0xdd /opt/arm-cortex-toolchain/lib/gcc/arm-none-eabi/4.3.3/../../../../arm-none-eabi/lib/thumb/libg.a(lib_a-strrchr.o)
 .debug_loc     0x0000000000004059      0x93b /opt/arm-cortex-toolchain/lib/gcc/arm-none-eabi/4.3.3/../../../../arm-none-eabi/lib/thumb/libg.a(lib_a-strstr.o)
 .debug_loc     0x0000000000004994      0x196 /opt/arm-cortex-toolchain/lib/gcc/arm-none-eabi/4.3.3/../../../../arm-none-eabi/lib/thumb/libg.a(lib_a-memchr.o)

.debug_pubnames
                0x0000000000000000     0x1924
 .debug_pubnames
                0x0000000000000000       0xb0 main.o
 .debug_pubnames
                0x00000000000000b0       0x72 timertest.o
 .debug_pubnames
                0x0000000000000122      0x10c rit128x96x4.o
 .debug_pubnames
                0x000000000000022e       0xde osram128x64x4.o
 .debug_pubnames
                0x000000000000030c      0x100 formike128x128x16.o
 .debug_pubnames
                0x000000000000040c       0x50 ./ParTest/ParTest.o
 .debug_pubnames
                0x000000000000045c       0x3c ../../Common/drivers/LuminaryMicro/ustdlib.o
 .debug_pubnames
                0x0000000000000498       0x52 ../../Common/Minimal/BlockQ.o
 .debug_pubnames
                0x00000000000004ea       0x53 ../../Common/Minimal/blocktim.o
 .debug_pubnames
                0x000000000000053d       0x5a ../../Common/Minimal/death.o
 .debug_pubnames
                0x0000000000000597       0x52 ../../Common/Minimal/integer.o
 .debug_pubnames
                0x00000000000005e9       0x4f ../../Common/Minimal/PollQ.o
 .debug_pubnames
                0x0000000000000638       0x4e ../../Common/Minimal/semtest.o
 .debug_pubnames
                0x0000000000000686       0x54 ../../Common/Minimal/GenQTest.o
 .debug_pubnames
                0x00000000000006da       0x95 ../../Common/Minimal/QPeek.o
 .debug_pubnames
                0x000000000000076f       0x58 ../../Common/Minimal/recmutex.o
 .debug_pubnames
                0x00000000000007c7      0x150 ../../Common/Minimal/IntQueue.o
 .debug_pubnames
                0x0000000000000917       0x66 ./IntQueueTimer.o
 .debug_pubnames
                0x000000000000097d       0x5f ./webserver/uIP_Task.o
 .debug_pubnames
                0x00000000000009dc       0xcf ./webserver/emac.o
 .debug_pubnames
                0x0000000000000aab       0x33 ./webserver/httpd.o
 .debug_pubnames
                0x0000000000000ade       0x3f ./webserver/httpd-cgi.o
 .debug_pubnames
                0x0000000000000b1d       0xd5 ./webserver/httpd-fs.o
 .debug_pubnames
                0x0000000000000bf2      0x271 ./webserver/http-strings.o
 .debug_pubnames
                0x0000000000000e63       0x68 ../../Common/ethernet/uIP/uip-1.0/uip/uip_arp.o
 .debug_pubnames
                0x0000000000000ecb       0x90 ../../Common/ethernet/uIP/uip-1.0/uip/psock.o
 .debug_pubnames
                0x0000000000000f5b       0x54 ../../Common/ethernet/uIP/uip-1.0/uip/timer.o
 .debug_pubnames
                0x0000000000000faf      0x1aa ../../Common/ethernet/uIP/uip-1.0/uip/uip.o
 .debug_pubnames
                0x0000000000001159       0x71 ../../Source/list.o
 .debug_pubnames
                0x00000000000011ca      0x18c ../../Source/queue.o
 .debug_pubnames
                0x0000000000001356      0x2f3 ../../Source/tasks.o
 .debug_pubnames
                0x0000000000001649      0x10d ../../Source/portable/GCC/ARM_CM3/port.o
 .debug_pubnames
                0x0000000000001756       0x31 ../../Source/portable/MemMang/heap_2.o
 .debug_pubnames
                0x0000000000001787       0x3e startup.o
 .debug_pubnames
                0x00000000000017c5       0x1d /opt/arm-cortex-toolchain/lib/gcc/arm-none-eabi/4.3.3/../../../../arm-none-eabi/lib/thumb/libg.a(lib_a-memcmp.o)
 .debug_pubnames
                0x00000000000017e2       0x1d /opt/arm-cortex-toolchain/lib/gcc/arm-none-eabi/4.3.3/../../../../arm-none-eabi/lib/thumb/libg.a(lib_a-memcpy.o)
 .debug_pubnames
                0x00000000000017ff       0x1d /opt/arm-cortex-toolchain/lib/gcc/arm-none-eabi/4.3.3/../../../../arm-none-eabi/lib/thumb/libg.a(lib_a-memset.o)
 .debug_pubnames
                0x000000000000181c       0x1d /opt/arm-cortex-toolchain/lib/gcc/arm-none-eabi/4.3.3/../../../../arm-none-eabi/lib/thumb/libg.a(lib_a-strcat.o)
 .debug_pubnames
                0x0000000000001839       0x1d /opt/arm-cortex-toolchain/lib/gcc/arm-none-eabi/4.3.3/../../../../arm-none-eabi/lib/thumb/libg.a(lib_a-strchr.o)
 .debug_pubnames
                0x0000000000001856       0x1d /opt/arm-cortex-toolchain/lib/gcc/arm-none-eabi/4.3.3/../../../../arm-none-eabi/lib/thumb/libg.a(lib_a-strcpy.o)
 .debug_pubnames
                0x0000000000001873       0x1d /opt/arm-cortex-toolchain/lib/gcc/arm-none-eabi/4.3.3/../../../../arm-none-eabi/lib/thumb/libg.a(lib_a-strlen.o)
 .debug_pubnames
                0x0000000000001890       0x1e /opt/arm-cortex-toolchain/lib/gcc/arm-none-eabi/4.3.3/../../../../arm-none-eabi/lib/thumb/libg.a(lib_a-strncmp.o)
 .debug_pubnames
                0x00000000000018ae       0x1e /opt/arm-cortex-toolchain/lib/gcc/arm-none-eabi/4.3.3/../../../../arm-none-eabi/lib/thumb/libg.a(lib_a-strncpy.o)
 .debug_pubnames
                0x00000000000018cc       0x1e /opt/arm-cortex-toolchain/lib/gcc/arm-none-eabi/4.3.3/../../../../arm-none-eabi/lib/thumb/libg.a(lib_a-strrchr.o)
 .debug_pubnames
                0x00000000000018ea       0x1d /opt/arm-cortex-toolchain/lib/gcc/arm-none-eabi/4.3.3/../../../../arm-none-eabi/lib/thumb/libg.a(lib_a-strstr.o)
 .debug_pubnames
                0x0000000000001907       0x1d /opt/arm-cortex-toolchain/lib/gcc/arm-none-eabi/4.3.3/../../../../arm-none-eabi/lib/thumb/libg.a(lib_a-memchr.o)

.debug_aranges  0x0000000000000000      0xce8
 .debug_aranges
                0x0000000000000000       0x40 main.o
 .debug_aranges
                0x0000000000000040       0x28 timertest.o
 .debug_aranges
                0x0000000000000068       0x68 rit128x96x4.o
 .debug_aranges
                0x00000000000000d0       0x68 osram128x64x4.o
 .debug_aranges
                0x0000000000000138       0x98 formike128x128x16.o
 .debug_aranges
                0x00000000000001d0       0x30 ./ParTest/ParTest.o
 .debug_aranges
                0x0000000000000200       0x30 ../../Common/drivers/LuminaryMicro/ustdlib.o
 .debug_aranges
                0x0000000000000230       0x38 ../../Common/Minimal/BlockQ.o
 .debug_aranges
                0x0000000000000268       0x38 ../../Common/Minimal/blocktim.o
 .debug_aranges
                0x00000000000002a0       0x38 ../../Common/Minimal/death.o
 .debug_aranges
                0x00000000000002d8       0x30 ../../Common/Minimal/integer.o
 .debug_aranges
                0x0000000000000308       0x38 ../../Common/Minimal/PollQ.o
 .debug_aranges
                0x0000000000000340       0x30 ../../Common/Minimal/semtest.o
 .debug_aranges
                0x0000000000000370       0x48 ../../Common/Minimal/GenQTest.o
 .debug_aranges
                0x00000000000003b8       0x48 ../../Common/Minimal/QPeek.o
 .debug_aranges
                0x0000000000000400       0x40 ../../Common/Minimal/recmutex.o
 .debug_aranges
                0x0000000000000440       0x78 ../../Common/Minimal/IntQueue.o
 .debug_aranges
                0x00000000000004b8       0x30 ./IntQueueTimer.o
 .debug_aranges
                0x00000000000004e8       0x48 ./webserver/uIP_Task.o
 .debug_aranges
                0x0000000000000530       0x50 ./webserver/emac.o
 .debug_aranges
                0x0000000000000580       0x70 ./webserver/httpd.o
 .debug_aranges
                0x00000000000005f0       0x88 ./webserver/httpd-cgi.o
 .debug_aranges
                0x0000000000000678       0x38 ./webserver/httpd-fs.o
 .debug_aranges
                0x00000000000006b0       0x48 ../../Common/ethernet/uIP/uip-1.0/uip/uip_arp.o
 .debug_aranges
                0x00000000000006f8       0x78 ../../Common/ethernet/uIP/uip-1.0/uip/psock.o
 .debug_aranges
                0x0000000000000770       0x38 ../../Common/ethernet/uIP/uip-1.0/uip/timer.o
 .debug_aranges
                0x00000000000007a8       0x98 ../../Common/ethernet/uIP/uip-1.0/uip/uip.o
 .debug_aranges
                0x0000000000000840       0x40 ../../Source/list.o
 .debug_aranges
                0x0000000000000880       0xb8 ../../Source/queue.o
 .debug_aranges
                0x0000000000000938      0x158 ../../Source/tasks.o
 .debug_aranges
                0x0000000000000a90       0x70 ../../Source/portable/GCC/ARM_CM3/port.o
 .debug_aranges
                0x0000000000000b00       0x28 ../../Source/portable/MemMang/heap_2.o
 .debug_aranges
                0x0000000000000b28       0x40 startup.o
 .debug_aranges
                0x0000000000000b68       0x20 /opt/arm-cortex-toolchain/lib/gcc/arm-none-eabi/4.3.3/../../../../arm-none-eabi/lib/thumb/libg.a(lib_a-memcmp.o)
 .debug_aranges
                0x0000000000000b88       0x20 /opt/arm-cortex-toolchain/lib/gcc/arm-none-eabi/4.3.3/../../../../arm-none-eabi/lib/thumb/libg.a(lib_a-memcpy.o)
 .debug_aranges
                0x0000000000000ba8       0x20 /opt/arm-cortex-toolchain/lib/gcc/arm-none-eabi/4.3.3/../../../../arm-none-eabi/lib/thumb/libg.a(lib_a-memset.o)
 .debug_aranges
                0x0000000000000bc8       0x20 /opt/arm-cortex-toolchain/lib/gcc/arm-none-eabi/4.3.3/../../../../arm-none-eabi/lib/thumb/libg.a(lib_a-strcat.o)
 .debug_aranges
                0x0000000000000be8       0x20 /opt/arm-cortex-toolchain/lib/gcc/arm-none-eabi/4.3.3/../../../../arm-none-eabi/lib/thumb/libg.a(lib_a-strchr.o)
 .debug_aranges
                0x0000000000000c08       0x20 /opt/arm-cortex-toolchain/lib/gcc/arm-none-eabi/4.3.3/../../../../arm-none-eabi/lib/thumb/libg.a(lib_a-strcpy.o)
 .debug_aranges
                0x0000000000000c28       0x20 /opt/arm-cortex-toolchain/lib/gcc/arm-none-eabi/4.3.3/../../../../arm-none-eabi/lib/thumb/libg.a(lib_a-strlen.o)
 .debug_aranges
                0x0000000000000c48       0x20 /opt/arm-cortex-toolchain/lib/gcc/arm-none-eabi/4.3.3/../../../../arm-none-eabi/lib/thumb/libg.a(lib_a-strncmp.o)
 .debug_aranges
                0x0000000000000c68       0x20 /opt/arm-cortex-toolchain/lib/gcc/arm-none-eabi/4.3.3/../../../../arm-none-eabi/lib/thumb/libg.a(lib_a-strncpy.o)
 .debug_aranges
                0x0000000000000c88       0x20 /opt/arm-cortex-toolchain/lib/gcc/arm-none-eabi/4.3.3/../../../../arm-none-eabi/lib/thumb/libg.a(lib_a-strrchr.o)
 .debug_aranges
                0x0000000000000ca8       0x20 /opt/arm-cortex-toolchain/lib/gcc/arm-none-eabi/4.3.3/../../../../arm-none-eabi/lib/thumb/libg.a(lib_a-strstr.o)
 .debug_aranges
                0x0000000000000cc8       0x20 /opt/arm-cortex-toolchain/lib/gcc/arm-none-eabi/4.3.3/../../../../arm-none-eabi/lib/thumb/libg.a(lib_a-memchr.o)

.debug_ranges   0x0000000000000000      0xb40
 .debug_ranges  0x0000000000000000       0x38 main.o
 .debug_ranges  0x0000000000000038       0x20 timertest.o
 .debug_ranges  0x0000000000000058       0x60 rit128x96x4.o
 .debug_ranges  0x00000000000000b8       0x60 osram128x64x4.o
 .debug_ranges  0x0000000000000118       0x90 formike128x128x16.o
 .debug_ranges  0x00000000000001a8       0x28 ./ParTest/ParTest.o
 .debug_ranges  0x00000000000001d0       0x28 ../../Common/drivers/LuminaryMicro/ustdlib.o
 .debug_ranges  0x00000000000001f8       0x30 ../../Common/Minimal/BlockQ.o
 .debug_ranges  0x0000000000000228       0x30 ../../Common/Minimal/blocktim.o
 .debug_ranges  0x0000000000000258       0x30 ../../Common/Minimal/death.o
 .debug_ranges  0x0000000000000288       0x28 ../../Common/Minimal/integer.o
 .debug_ranges  0x00000000000002b0       0x30 ../../Common/Minimal/PollQ.o
 .debug_ranges  0x00000000000002e0       0x28 ../../Common/Minimal/semtest.o
 .debug_ranges  0x0000000000000308       0x40 ../../Common/Minimal/GenQTest.o
 .debug_ranges  0x0000000000000348       0x40 ../../Common/Minimal/QPeek.o
 .debug_ranges  0x0000000000000388       0x38 ../../Common/Minimal/recmutex.o
 .debug_ranges  0x00000000000003c0       0x70 ../../Common/Minimal/IntQueue.o
 .debug_ranges  0x0000000000000430       0x28 ./IntQueueTimer.o
 .debug_ranges  0x0000000000000458       0x40 ./webserver/uIP_Task.o
 .debug_ranges  0x0000000000000498       0x48 ./webserver/emac.o
 .debug_ranges  0x00000000000004e0       0x68 ./webserver/httpd.o
 .debug_ranges  0x0000000000000548       0x80 ./webserver/httpd-cgi.o
 .debug_ranges  0x00000000000005c8       0x30 ./webserver/httpd-fs.o
 .debug_ranges  0x00000000000005f8       0x40 ../../Common/ethernet/uIP/uip-1.0/uip/uip_arp.o
 .debug_ranges  0x0000000000000638       0x70 ../../Common/ethernet/uIP/uip-1.0/uip/psock.o
 .debug_ranges  0x00000000000006a8       0x30 ../../Common/ethernet/uIP/uip-1.0/uip/timer.o
 .debug_ranges  0x00000000000006d8       0x90 ../../Common/ethernet/uIP/uip-1.0/uip/uip.o
 .debug_ranges  0x0000000000000768       0x38 ../../Source/list.o
 .debug_ranges  0x00000000000007a0       0xb0 ../../Source/queue.o
 .debug_ranges  0x0000000000000850      0x150 ../../Source/tasks.o
 .debug_ranges  0x00000000000009a0       0x68 ../../Source/portable/GCC/ARM_CM3/port.o
 .debug_ranges  0x0000000000000a08       0x20 ../../Source/portable/MemMang/heap_2.o
 .debug_ranges  0x0000000000000a28       0x38 startup.o
 .debug_ranges  0x0000000000000a60       0xe0 /opt/arm-cortex-toolchain/lib/gcc/arm-none-eabi/4.3.3/../../../../arm-none-eabi/lib/thumb/libg.a(lib_a-strstr.o)

.debug_str      0x0000000000000000     0x3bd9
 .debug_str     0x0000000000000000      0x238 main.o
                                        0x293 (size before relaxing)
 .debug_str     0x0000000000000238       0x94 timertest.o
                                        0x138 (size before relaxing)
 .debug_str     0x00000000000002cc      0x1d1 rit128x96x4.o
                                        0x287 (size before relaxing)
 .debug_str     0x000000000000049d      0x12e osram128x64x4.o
                                        0x277 (size before relaxing)
 .debug_str     0x00000000000005cb      0x32b formike128x128x16.o
                                        0x482 (size before relaxing)
 .debug_str     0x00000000000008f6       0x4a ./ParTest/ParTest.o
                                         0xe9 (size before relaxing)
 .debug_str     0x0000000000000940       0xb6 ../../Common/drivers/LuminaryMicro/ustdlib.o
                                        0x1ce (size before relaxing)
 .debug_str     0x00000000000009f6      0x21e ../../Common/Minimal/BlockQ.o
                                        0x344 (size before relaxing)
 .debug_str     0x0000000000000c14      0x13e ../../Common/Minimal/blocktim.o
                                        0x20f (size before relaxing)
 .debug_str     0x0000000000000d52       0xf1 ../../Common/Minimal/death.o
                                        0x222 (size before relaxing)
 .debug_str     0x0000000000000e43       0x92 ../../Common/Minimal/integer.o
                                        0x1aa (size before relaxing)
 .debug_str     0x0000000000000ed5       0xc2 ../../Common/Minimal/PollQ.o
                                        0x1f9 (size before relaxing)
 .debug_str     0x0000000000000f97      0x165 ../../Common/Minimal/semtest.o
                                        0x2a2 (size before relaxing)
 .debug_str     0x00000000000010fc      0x160 ../../Common/Minimal/GenQTest.o
                                        0x29b (size before relaxing)
 .debug_str     0x000000000000125c       0xf0 ../../Common/Minimal/QPeek.o
                                        0x23f (size before relaxing)
 .debug_str     0x000000000000134c      0x188 ../../Common/Minimal/recmutex.o
                                        0x267 (size before relaxing)
 .debug_str     0x00000000000014d4      0x410 ../../Common/Minimal/IntQueue.o
                                        0x53a (size before relaxing)
 .debug_str     0x00000000000018e4       0x58 ./IntQueueTimer.o
                                         0xfc (size before relaxing)
 .debug_str     0x000000000000193c      0x292 ./webserver/uIP_Task.o
                                        0x408 (size before relaxing)
 .debug_str     0x0000000000001bce      0x10c ./webserver/emac.o
                                        0x26a (size before relaxing)
 .debug_str     0x0000000000001cda      0x211 ./webserver/httpd.o
                                        0x45e (size before relaxing)
 .debug_str     0x0000000000001eeb      0x1d6 ./webserver/httpd-cgi.o
                                        0x495 (size before relaxing)
 .debug_str     0x00000000000020c1      0x170 ./webserver/httpd-fs.o
                                        0x29a (size before relaxing)
 .debug_str     0x0000000000002231       0xc3 ./webserver/http-strings.o
                                        0x257 (size before relaxing)
 .debug_str     0x00000000000022f4      0x168 ../../Common/ethernet/uIP/uip-1.0/uip/uip_arp.o
                                        0x309 (size before relaxing)
 .debug_str     0x000000000000245c       0xf2 ../../Common/ethernet/uIP/uip-1.0/uip/psock.o
                                        0x373 (size before relaxing)
 .debug_str     0x000000000000254e       0x60 ../../Common/ethernet/uIP/uip-1.0/uip/timer.o
                                        0x10c (size before relaxing)
 .debug_str     0x00000000000025ae      0x27b ../../Common/ethernet/uIP/uip-1.0/uip/uip.o
                                        0x634 (size before relaxing)
 .debug_str     0x0000000000002829      0x132 ../../Source/list.o
                                        0x230 (size before relaxing)
 .debug_str     0x000000000000295b      0x39d ../../Source/queue.o
                                        0x57a (size before relaxing)
 .debug_str     0x0000000000002cf8      0x7b1 ../../Source/tasks.o
                                        0x9f3 (size before relaxing)
 .debug_str     0x00000000000034a9      0x130 ../../Source/portable/GCC/ARM_CM3/port.o
                                        0x1e0 (size before relaxing)
 .debug_str     0x00000000000035d9      0x111 ../../Source/portable/MemMang/heap_2.o
                                        0x216 (size before relaxing)
 .debug_str     0x00000000000036ea       0x7c startup.o
                                         0xfb (size before relaxing)
 .debug_str     0x0000000000003766       0x87 /opt/arm-cortex-toolchain/lib/gcc/arm-none-eabi/4.3.3/../../../../arm-none-eabi/lib/thumb/libg.a(lib_a-memcmp.o)
                                        0x123 (size before relaxing)
 .debug_str     0x00000000000037ed       0x6a /opt/arm-cortex-toolchain/lib/gcc/arm-none-eabi/4.3.3/../../../../arm-none-eabi/lib/thumb/libg.a(lib_a-memcpy.o)
                                        0x14a (size before relaxing)
 .debug_str     0x0000000000003857       0x50 /opt/arm-cortex-toolchain/lib/gcc/arm-none-eabi/4.3.3/../../../../arm-none-eabi/lib/thumb/libg.a(lib_a-memset.o)
                                        0x137 (size before relaxing)
 .debug_str     0x00000000000038a7       0x4e /opt/arm-cortex-toolchain/lib/gcc/arm-none-eabi/4.3.3/../../../../arm-none-eabi/lib/thumb/libg.a(lib_a-strcat.o)
                                        0x127 (size before relaxing)
 .debug_str     0x00000000000038f5       0x43 /opt/arm-cortex-toolchain/lib/gcc/arm-none-eabi/4.3.3/../../../../arm-none-eabi/lib/thumb/libg.a(lib_a-strchr.o)
                                        0x12e (size before relaxing)
 .debug_str     0x0000000000003938       0x43 /opt/arm-cortex-toolchain/lib/gcc/arm-none-eabi/4.3.3/../../../../arm-none-eabi/lib/thumb/libg.a(lib_a-strcpy.o)
                                        0x13e (size before relaxing)
 .debug_str     0x000000000000397b       0x43 /opt/arm-cortex-toolchain/lib/gcc/arm-none-eabi/4.3.3/../../../../arm-none-eabi/lib/thumb/libg.a(lib_a-strlen.o)
                                        0x136 (size before relaxing)
 .debug_str     0x00000000000039be       0x45 /opt/arm-cortex-toolchain/lib/gcc/arm-none-eabi/4.3.3/../../../../arm-none-eabi/lib/thumb/libg.a(lib_a-strncmp.o)
                                        0x125 (size before relaxing)
 .debug_str     0x0000000000003a03       0x45 /opt/arm-cortex-toolchain/lib/gcc/arm-none-eabi/4.3.3/../../../../arm-none-eabi/lib/thumb/libg.a(lib_a-strncpy.o)
                                        0x14d (size before relaxing)
 .debug_str     0x0000000000003a48       0x4a /opt/arm-cortex-toolchain/lib/gcc/arm-none-eabi/4.3.3/../../../../arm-none-eabi/lib/thumb/libg.a(lib_a-strrchr.o)
                                        0x123 (size before relaxing)
 .debug_str     0x0000000000003a92       0xef /opt/arm-cortex-toolchain/lib/gcc/arm-none-eabi/4.3.3/../../../../arm-none-eabi/lib/thumb/libg.a(lib_a-strstr.o)
                                        0x1dd (size before relaxing)
 .debug_str     0x0000000000003b81       0x58 /opt/arm-cortex-toolchain/lib/gcc/arm-none-eabi/4.3.3/../../../../arm-none-eabi/lib/thumb/libg.a(lib_a-memchr.o)
                                        0x13d (size before relaxing)

.comment        0x0000000000000000      0x4f6
 .comment       0x0000000000000000       0x12 main.o
 .comment       0x0000000000000012       0x12 timertest.o
 .comment       0x0000000000000024       0x12 rit128x96x4.o
 .comment       0x0000000000000036       0x12 osram128x64x4.o
 .comment       0x0000000000000048       0x12 formike128x128x16.o
 .comment       0x000000000000005a       0x12 ./ParTest/ParTest.o
 .comment       0x000000000000006c       0x12 ../../Common/drivers/LuminaryMicro/ustdlib.o
 .comment       0x000000000000007e       0x12 ../../Common/Minimal/BlockQ.o
 .comment       0x0000000000000090       0x12 ../../Common/Minimal/blocktim.o
 .comment       0x00000000000000a2       0x12 ../../Common/Minimal/death.o
 .comment       0x00000000000000b4       0x12 ../../Common/Minimal/integer.o
 .comment       0x00000000000000c6       0x12 ../../Common/Minimal/PollQ.o
 .comment       0x00000000000000d8       0x12 ../../Common/Minimal/semtest.o
 .comment       0x00000000000000ea       0x12 ../../Common/Minimal/GenQTest.o
 .comment       0x00000000000000fc       0x12 ../../Common/Minimal/QPeek.o
 .comment       0x000000000000010e       0x12 ../../Common/Minimal/recmutex.o
 .comment       0x0000000000000120       0x12 ../../Common/Minimal/IntQueue.o
 .comment       0x0000000000000132       0x12 ./IntQueueTimer.o
 .comment       0x0000000000000144       0x12 ./webserver/uIP_Task.o
 .comment       0x0000000000000156       0x12 ./webserver/emac.o
 .comment       0x0000000000000168       0x12 ./webserver/httpd.o
 .comment       0x000000000000017a       0x12 ./webserver/httpd-cgi.o
 .comment       0x000000000000018c       0x12 ./webserver/httpd-fs.o
 .comment       0x000000000000019e       0x12 ./webserver/http-strings.o
 .comment       0x00000000000001b0       0x12 ../../Common/ethernet/uIP/uip-1.0/uip/uip_arp.o
 .comment       0x00000000000001c2       0x12 ../../Common/ethernet/uIP/uip-1.0/uip/psock.o
 .comment       0x00000000000001d4       0x12 ../../Common/ethernet/uIP/uip-1.0/uip/timer.o
 .comment       0x00000000000001e6       0x12 ../../Common/ethernet/uIP/uip-1.0/uip/uip.o
 .comment       0x00000000000001f8       0x12 ../../Source/list.o
 .comment       0x000000000000020a       0x12 ../../Source/queue.o
 .comment       0x000000000000021c       0x12 ../../Source/tasks.o
 .comment       0x000000000000022e       0x12 ../../Source/portable/GCC/ARM_CM3/port.o
 .comment       0x0000000000000240       0x12 ../../Source/portable/MemMang/heap_2.o
 .comment       0x0000000000000252       0x12 startup.o
 .comment       0x0000000000000264       0x22 ../../Common/drivers/LuminaryMicro/arm-none-eabi-gcc/libdriver.a(ethernet.o)
 .comment       0x0000000000000286       0x22 ../../Common/drivers/LuminaryMicro/arm-none-eabi-gcc/libdriver.a(flash.o)
 .comment       0x00000000000002a8       0x22 ../../Common/drivers/LuminaryMicro/arm-none-eabi-gcc/libdriver.a(gpio.o)
 .comment       0x00000000000002ca       0x22 ../../Common/drivers/LuminaryMicro/arm-none-eabi-gcc/libdriver.a(interrupt.o)
 .comment       0x00000000000002ec       0x22 ../../Common/drivers/LuminaryMicro/arm-none-eabi-gcc/libdriver.a(ssi.o)
 .comment       0x000000000000030e       0x22 ../../Common/drivers/LuminaryMicro/arm-none-eabi-gcc/libdriver.a(sysctl.o)
 .comment       0x0000000000000330       0x22 ../../Common/drivers/LuminaryMicro/arm-none-eabi-gcc/libdriver.a(timer.o)
 .comment       0x0000000000000352       0x22 ../../Common/drivers/LuminaryMicro/arm-none-eabi-gcc/libgr.a(context.o)
 .comment       0x0000000000000374       0x22 ../../Common/drivers/LuminaryMicro/arm-none-eabi-gcc/libgr.a(fontcmss12.o)
 .comment       0x0000000000000396       0x22 ../../Common/drivers/LuminaryMicro/arm-none-eabi-gcc/libgr.a(image.o)
 .comment       0x00000000000003b8       0x22 ../../Common/drivers/LuminaryMicro/arm-none-eabi-gcc/libgr.a(rectangle.o)
 .comment       0x00000000000003da       0x22 ../../Common/drivers/LuminaryMicro/arm-none-eabi-gcc/libgr.a(string.o)
 .comment       0x00000000000003fc       0x22 ../../Common/drivers/LuminaryMicro/arm-none-eabi-gcc/libgr.a(line.o)
 .comment       0x000000000000041e       0x12 /opt/arm-cortex-toolchain/lib/gcc/arm-none-eabi/4.3.3/../../../../arm-none-eabi/lib/thumb/libg.a(lib_a-memcmp.o)
 .comment       0x0000000000000430       0x12 /opt/arm-cortex-toolchain/lib/gcc/arm-none-eabi/4.3.3/../../../../arm-none-eabi/lib/thumb/libg.a(lib_a-memcpy.o)
 .comment       0x0000000000000442       0x12 /opt/arm-cortex-toolchain/lib/gcc/arm-none-eabi/4.3.3/../../../../arm-none-eabi/lib/thumb/libg.a(lib_a-memset.o)
 .comment       0x0000000000000454       0x12 /opt/arm-cortex-toolchain/lib/gcc/arm-none-eabi/4.3.3/../../../../arm-none-eabi/lib/thumb/libg.a(lib_a-strcat.o)
 .comment       0x0000000000000466       0x12 /opt/arm-cortex-toolchain/lib/gcc/arm-none-eabi/4.3.3/../../../../arm-none-eabi/lib/thumb/libg.a(lib_a-strchr.o)
 .comment       0x0000000000000478       0x12 /opt/arm-cortex-toolchain/lib/gcc/arm-none-eabi/4.3.3/../../../../arm-none-eabi/lib/thumb/libg.a(lib_a-strcpy.o)
 .comment       0x000000000000048a       0x12 /opt/arm-cortex-toolchain/lib/gcc/arm-none-eabi/4.3.3/../../../../arm-none-eabi/lib/thumb/libg.a(lib_a-strlen.o)
 .comment       0x000000000000049c       0x12 /opt/arm-cortex-toolchain/lib/gcc/arm-none-eabi/4.3.3/../../../../arm-none-eabi/lib/thumb/libg.a(lib_a-strncmp.o)
 .comment       0x00000000000004ae       0x12 /opt/arm-cortex-toolchain/lib/gcc/arm-none-eabi/4.3.3/../../../../arm-none-eabi/lib/thumb/libg.a(lib_a-strncpy.o)
 .comment       0x00000000000004c0       0x12 /opt/arm-cortex-toolchain/lib/gcc/arm-none-eabi/4.3.3/../../../../arm-none-eabi/lib/thumb/libg.a(lib_a-strrchr.o)
 .comment       0x00000000000004d2       0x12 /opt/arm-cortex-toolchain/lib/gcc/arm-none-eabi/4.3.3/../../../../arm-none-eabi/lib/thumb/libg.a(lib_a-strstr.o)
 .comment       0x00000000000004e4       0x12 /opt/arm-cortex-toolchain/lib/gcc/arm-none-eabi/4.3.3/../../../../arm-none-eabi/lib/thumb/libg.a(lib_a-memchr.o)

.ARM.attributes
                0x0000000000000000       0x31
 .ARM.attributes
                0x0000000000000000       0x31 main.o
 .ARM.attributes
                0x0000000000000031       0x31 timertest.o
 .ARM.attributes
                0x0000000000000062       0x31 rit128x96x4.o
 .ARM.attributes
                0x0000000000000093       0x31 osram128x64x4.o
 .ARM.attributes
                0x00000000000000c4       0x31 formike128x128x16.o
 .ARM.attributes
                0x00000000000000f5       0x31 ./ParTest/ParTest.o
 .ARM.attributes
                0x0000000000000126       0x31 ../../Common/drivers/LuminaryMicro/ustdlib.o
 .ARM.attributes
                0x0000000000000157       0x31 ../../Common/Minimal/BlockQ.o
 .ARM.attributes
                0x0000000000000188       0x31 ../../Common/Minimal/blocktim.o
 .ARM.attributes
                0x00000000000001b9       0x31 ../../Common/Minimal/death.o
 .ARM.attributes
                0x00000000000001ea       0x31 ../../Common/Minimal/integer.o
 .ARM.attributes
                0x000000000000021b       0x31 ../../Common/Minimal/PollQ.o
 .ARM.attributes
                0x000000000000024c       0x31 ../../Common/Minimal/semtest.o
 .ARM.attributes
                0x000000000000027d       0x31 ../../Common/Minimal/GenQTest.o
 .ARM.attributes
                0x00000000000002ae       0x31 ../../Common/Minimal/QPeek.o
 .ARM.attributes
                0x00000000000002df       0x31 ../../Common/Minimal/recmutex.o
 .ARM.attributes
                0x0000000000000310       0x31 ../../Common/Minimal/IntQueue.o
 .ARM.attributes
                0x0000000000000341       0x31 ./IntQueueTimer.o
 .ARM.attributes
                0x0000000000000372       0x31 ./webserver/uIP_Task.o
 .ARM.attributes
                0x00000000000003a3       0x31 ./webserver/emac.o
 .ARM.attributes
                0x00000000000003d4       0x31 ./webserver/httpd.o
 .ARM.attributes
                0x0000000000000405       0x31 ./webserver/httpd-cgi.o
 .ARM.attributes
                0x0000000000000436       0x31 ./webserver/httpd-fs.o
 .ARM.attributes
                0x0000000000000467       0x2f ./webserver/http-strings.o
 .ARM.attributes
                0x0000000000000496       0x31 ../../Common/ethernet/uIP/uip-1.0/uip/uip_arp.o
 .ARM.attributes
                0x00000000000004c7       0x31 ../../Common/ethernet/uIP/uip-1.0/uip/psock.o
 .ARM.attributes
                0x00000000000004f8       0x31 ../../Common/ethernet/uIP/uip-1.0/uip/timer.o
 .ARM.attributes
                0x0000000000000529       0x31 ../../Common/ethernet/uIP/uip-1.0/uip/uip.o
 .ARM.attributes
                0x000000000000055a       0x31 ../../Source/list.o
 .ARM.attributes
                0x000000000000058b       0x31 ../../Source/queue.o
 .ARM.attributes
                0x00000000000005bc       0x31 ../../Source/tasks.o
 .ARM.attributes
                0x00000000000005ed       0x31 ../../Source/portable/GCC/ARM_CM3/port.o
 .ARM.attributes
                0x000000000000061e       0x31 ../../Source/portable/MemMang/heap_2.o
 .ARM.attributes
                0x000000000000064f       0x31 startup.o
 .ARM.attributes
                0x0000000000000680       0x31 ../../Common/drivers/LuminaryMicro/arm-none-eabi-gcc/libdriver.a(ethernet.o)
 .ARM.attributes
                0x00000000000006b1       0x31 ../../Common/drivers/LuminaryMicro/arm-none-eabi-gcc/libdriver.a(flash.o)
 .ARM.attributes
                0x00000000000006e2       0x31 ../../Common/drivers/LuminaryMicro/arm-none-eabi-gcc/libdriver.a(gpio.o)
 .ARM.attributes
                0x0000000000000713       0x31 ../../Common/drivers/LuminaryMicro/arm-none-eabi-gcc/libdriver.a(interrupt.o)
 .ARM.attributes
                0x0000000000000744       0x31 ../../Common/drivers/LuminaryMicro/arm-none-eabi-gcc/libdriver.a(ssi.o)
 .ARM.attributes
                0x0000000000000775       0x31 ../../Common/drivers/LuminaryMicro/arm-none-eabi-gcc/libdriver.a(sysctl.o)
 .ARM.attributes
                0x00000000000007a6       0x31 ../../Common/drivers/LuminaryMicro/arm-none-eabi-gcc/libdriver.a(timer.o)
 .ARM.attributes
                0x00000000000007d7       0x21 ../../Common/drivers/LuminaryMicro/arm-none-eabi-gcc/libdriver.a(cpu.o)
 .ARM.attributes
                0x00000000000007f8       0x31 ../../Common/drivers/LuminaryMicro/arm-none-eabi-gcc/libgr.a(context.o)
 .ARM.attributes
                0x0000000000000829       0x2f ../../Common/drivers/LuminaryMicro/arm-none-eabi-gcc/libgr.a(fontcmss12.o)
 .ARM.attributes
                0x0000000000000858       0x31 ../../Common/drivers/LuminaryMicro/arm-none-eabi-gcc/libgr.a(image.o)
 .ARM.attributes
                0x0000000000000889       0x31 ../../Common/drivers/LuminaryMicro/arm-none-eabi-gcc/libgr.a(rectangle.o)
 .ARM.attributes
                0x00000000000008ba       0x31 ../../Common/drivers/LuminaryMicro/arm-none-eabi-gcc/libgr.a(string.o)
 .ARM.attributes
                0x00000000000008eb       0x31 ../../Common/drivers/LuminaryMicro/arm-none-eabi-gcc/libgr.a(line.o)
 .ARM.attributes
                0x000000000000091c       0x2e /opt/arm-cortex-toolchain/lib/gcc/arm-none-eabi/4.3.3/../../../../arm-none-eabi/lib/thumb/libg.a(lib_a-memcmp.o)
 .ARM.attributes
                0x000000000000094a       0x2e /opt/arm-cortex-toolchain/lib/gcc/arm-none-eabi/4.3.3/../../../../arm-none-eabi/lib/thumb/libg.a(lib_a-memcpy.o)
 .ARM.attributes
                0x0000000000000978       0x2e /opt/arm-cortex-toolchain/lib/gcc/arm-none-eabi/4.3.3/../../../../arm-none-eabi/lib/thumb/libg.a(lib_a-memset.o)
 .ARM.attributes
                0x00000000000009a6       0x2e /opt/arm-cortex-toolchain/lib/gcc/arm-none-eabi/4.3.3/../../../../arm-none-eabi/lib/thumb/libg.a(lib_a-strcat.o)
 .ARM.attributes
                0x00000000000009d4       0x2e /opt/arm-cortex-toolchain/lib/gcc/arm-none-eabi/4.3.3/../../../../arm-none-eabi/lib/thumb/libg.a(lib_a-strchr.o)
 .ARM.attributes
                0x0000000000000a02       0x2e /opt/arm-cortex-toolchain/lib/gcc/arm-none-eabi/4.3.3/../../../../arm-none-eabi/lib/thumb/libg.a(lib_a-strcpy.o)
 .ARM.attributes
                0x0000000000000a30       0x2e /opt/arm-cortex-toolchain/lib/gcc/arm-none-eabi/4.3.3/../../../../arm-none-eabi/lib/thumb/libg.a(lib_a-strlen.o)
 .ARM.attributes
                0x0000000000000a5e       0x2e /opt/arm-cortex-toolchain/lib/gcc/arm-none-eabi/4.3.3/../../../../arm-none-eabi/lib/thumb/libg.a(lib_a-strncmp.o)
 .ARM.attributes
                0x0000000000000a8c       0x2e /opt/arm-cortex-toolchain/lib/gcc/arm-none-eabi/4.3.3/../../../../arm-none-eabi/lib/thumb/libg.a(lib_a-strncpy.o)
 .ARM.attributes
                0x0000000000000aba       0x2e /opt/arm-cortex-toolchain/lib/gcc/arm-none-eabi/4.3.3/../../../../arm-none-eabi/lib/thumb/libg.a(lib_a-strrchr.o)
 .ARM.attributes
                0x0000000000000ae8       0x2e /opt/arm-cortex-toolchain/lib/gcc/arm-none-eabi/4.3.3/../../../../arm-none-eabi/lib/thumb/libg.a(lib_a-strstr.o)
 .ARM.attributes
                0x0000000000000b16       0x2e /opt/arm-cortex-toolchain/lib/gcc/arm-none-eabi/4.3.3/../../../../arm-none-eabi/lib/thumb/libg.a(lib_a-memchr.o)
